Component: ARM Compiler 5.06 update 6 (build 750) Tool: armlink [4d35ed]

==============================================================================

Section Cross References

    main.o(i.InitHardware) refers to nvic.o(i.InitNVIC) for InitNVIC
    main.o(i.InitHardware) refers to uart0.o(i.InitUART0) for InitUART0
    main.o(i.InitHardware) refers to uart1.o(i.InitUART1) for InitUART1
    main.o(i.InitHardware) refers to uart2.o(i.InitUART2) for InitUART2
    main.o(i.InitHardware) refers to adc.o(i.InitADC) for InitADC
    main.o(i.InitSoftware) refers to led.o(i.InitLED) for InitLED
    main.o(i.InitSoftware) refers to ecg.o(i.InitECG) for InitECG
    main.o(i.InitSoftware) refers to spo2.o(i.InitSPO2) for InitSPO2
    main.o(i.InitSoftware) refers to nibp.o(i.InitNIBP) for InitNIBP
    main.o(i.InitSoftware) refers to sprintf.o(i.InitSprintf) for InitSprintf
    main.o(i.StartTask) refers to cpu_core.o(i.CPU_Init) for CPU_Init
    main.o(i.StartTask) refers to lib_mem.o(i.Mem_Init) for Mem_Init
    main.o(i.StartTask) refers to lib_math.o(i.Math_Init) for Math_Init
    main.o(i.StartTask) refers to bsp.o(i.BSP_Tick_Init) for BSP_Tick_Init
    main.o(i.StartTask) refers to os_stat.o(i.OSStatTaskCPUUsageInit) for OSStatTaskCPUUsageInit
    main.o(i.StartTask) refers to main.o(i.InitHardware) for InitHardware
    main.o(i.StartTask) refers to main.o(i.InitSoftware) for InitSoftware
    main.o(i.StartTask) refers to printfa.o(i.__0printf) for __2printf
    main.o(i.StartTask) refers to os_task.o(i.OSTaskDel) for OSTaskDel
    main.o(i.StartTask) refers to main.o(.bss) for g_tcbStartTask
    main.o(i.main) refers to os_core.o(i.OSInit) for OSInit
    main.o(i.main) refers to printfa.o(i.__0printf) for __2printf
    main.o(i.main) refers to os_task.o(i.OSTaskCreate) for OSTaskCreate
    main.o(i.main) refers to os_core.o(i.OSStart) for OSStart
    main.o(i.main) refers to main.o(.bss) for s_arrStartStack
    main.o(i.main) refers to main.o(i.StartTask) for StartTask
    delay.o(i.DelayNms) refers to delay.o(i.DelayNus) for DelayNus
    led.o(i.ConfigLEDGPIO) refers to gd32f30x_rcu.o(i.rcu_periph_clock_enable) for rcu_periph_clock_enable
    led.o(i.ConfigLEDGPIO) refers to gd32f30x_gpio.o(i.gpio_init) for gpio_init
    led.o(i.ConfigLEDGPIO) refers to gd32f30x_gpio.o(i.gpio_bit_set) for gpio_bit_set
    led.o(i.ConfigLEDGPIO) refers to gd32f30x_gpio.o(i.gpio_bit_reset) for gpio_bit_reset
    led.o(i.InitLED) refers to memcpya.o(.text) for __aeabi_memcpy4
    led.o(i.InitLED) refers to led.o(i.ConfigLEDGPIO) for ConfigLEDGPIO
    led.o(i.InitLED) refers to os_task.o(i.OSTaskCreate) for OSTaskCreate
    led.o(i.InitLED) refers to printfa.o(i.__0printf) for __2printf
    led.o(i.InitLED) refers to led.o(.constdata) for .constdata
    led.o(i.LEDTask) refers to gd32f30x_gpio.o(i.gpio_output_bit_get) for gpio_output_bit_get
    led.o(i.LEDTask) refers to gd32f30x_gpio.o(i.gpio_bit_write) for gpio_bit_write
    led.o(i.LEDTask) refers to os_time.o(i.OSTimeDlyHMSM) for OSTimeDlyHMSM
    led.o(.constdata) refers to led.o(.bss) for g_tcbLEDTask
    led.o(.constdata) refers to led.o(i.LEDTask) for LEDTask
    led.o(.constdata) refers to led.o(.conststring) for .conststring
    filter.o(i.CreatIRR_Filter_str) refers to malloc.o(i.malloc) for malloc
    filter.o(i.FreeIRR_Filter_str) refers to malloc.o(i.free) for free
    ecg.o(i.ConfigECGGPIO) refers to gd32f30x_rcu.o(i.rcu_periph_clock_enable) for rcu_periph_clock_enable
    ecg.o(i.ConfigECGGPIO) refers to gd32f30x_gpio.o(i.gpio_init) for gpio_init
    ecg.o(i.ConfigECGGPIO) refers to gd32f30x_gpio.o(i.gpio_bit_reset) for gpio_bit_reset
    ecg.o(i.ECG_ProbeTask) refers to gd32f30x_gpio.o(i.gpio_input_bit_get) for gpio_input_bit_get
    ecg.o(i.ECG_ProbeTask) refers to os_task.o(i.OSTaskSuspend) for OSTaskSuspend
    ecg.o(i.ECG_ProbeTask) refers to printfa.o(i.__0sprintf) for __2sprintf
    ecg.o(i.ECG_ProbeTask) refers to sprintf.o(i.printf_s_aus) for printf_s_aus
    ecg.o(i.ECG_ProbeTask) refers to filter.o(i.InitIRR_Filter_str) for InitIRR_Filter_str
    ecg.o(i.ECG_ProbeTask) refers to os_task.o(i.OSTaskResume) for OSTaskResume
    ecg.o(i.ECG_ProbeTask) refers to os_time.o(i.OSTimeDlyHMSM) for OSTimeDlyHMSM
    ecg.o(i.ECG_ProbeTask) refers to ecg.o(.data) for ECG_ProbeStatus
    ecg.o(i.ECG_ProbeTask) refers to ecg.o(.bss) for g_tcbECG_SamplTask
    ecg.o(i.ECG_SamplTask) refers to adc.o(i.GetEcg) for GetEcg
    ecg.o(i.ECG_SamplTask) refers to filter.o(i.IIR_Filter) for IIR_Filter
    ecg.o(i.ECG_SamplTask) refers to calculate.o(i.FindPeriod_by_Peak) for FindPeriod_by_Peak
    ecg.o(i.ECG_SamplTask) refers to f2d.o(.text) for __aeabi_f2d
    ecg.o(i.ECG_SamplTask) refers to dmul.o(.text) for __aeabi_dmul
    ecg.o(i.ECG_SamplTask) refers to ddiv.o(.text) for __aeabi_ddiv
    ecg.o(i.ECG_SamplTask) refers to d2f.o(.text) for __aeabi_d2f
    ecg.o(i.ECG_SamplTask) refers to printfa.o(i.__0sprintf) for __2sprintf
    ecg.o(i.ECG_SamplTask) refers to sprintf.o(i.printf_s_aus) for printf_s_aus
    ecg.o(i.ECG_SamplTask) refers to calculate.o(i.FindMax) for FindMax
    ecg.o(i.ECG_SamplTask) refers to calculate.o(i.FindMin) for FindMin
    ecg.o(i.ECG_SamplTask) refers to dflti.o(.text) for __aeabi_i2d
    ecg.o(i.ECG_SamplTask) refers to dadd.o(.text) for __aeabi_dsub
    ecg.o(i.ECG_SamplTask) refers to dfixi.o(.text) for __aeabi_d2iz
    ecg.o(i.ECG_SamplTask) refers to os_time.o(i.OSTimeDly) for OSTimeDly
    ecg.o(i.ECG_SamplTask) refers to ecg.o(.bss) for ECG_50hzNotch
    ecg.o(i.ECG_SamplTask) refers to ecg.o(.data) for i
    ecg.o(i.InitECG) refers to memcpya.o(.text) for __aeabi_memcpy4
    ecg.o(i.InitECG) refers to ecg.o(i.ConfigECGGPIO) for ConfigECGGPIO
    ecg.o(i.InitECG) refers to filter.o(i.CreatIRR_Filter_str) for CreatIRR_Filter_str
    ecg.o(i.InitECG) refers to os_task.o(i.OSTaskCreate) for OSTaskCreate
    ecg.o(i.InitECG) refers to printfa.o(i.__0printf) for __2printf
    ecg.o(i.InitECG) refers to os_task.o(i.OSTaskSuspend) for OSTaskSuspend
    ecg.o(i.InitECG) refers to ecg.o(.constdata) for .constdata
    ecg.o(i.InitECG) refers to ecg.o(.bss) for ECG_50hzNotch
    ecg.o(i.InitECG) refers to filter.o(.constdata) for irr_50hz_notch_den
    ecg.o(.constdata) refers to ecg.o(.bss) for g_tcbECG_SamplTask
    ecg.o(.constdata) refers to ecg.o(i.ECG_SamplTask) for ECG_SamplTask
    ecg.o(.constdata) refers to ecg.o(.conststring) for .conststring
    ecg.o(.constdata) refers to ecg.o(i.ECG_ProbeTask) for ECG_ProbeTask
    spo2_hw_cfg.o(i.ConfigCSGPIO) refers to gd32f30x_rcu.o(i.rcu_periph_clock_enable) for rcu_periph_clock_enable
    spo2_hw_cfg.o(i.ConfigCSGPIO) refers to gd32f30x_gpio.o(i.gpio_init) for gpio_init
    spo2_hw_cfg.o(i.ConfigCSGPIO) refers to gd32f30x_gpio.o(i.gpio_bit_reset) for gpio_bit_reset
    spo2_hw_cfg.o(i.ConfigDACGPIO) refers to gd32f30x_rcu.o(i.rcu_periph_clock_enable) for rcu_periph_clock_enable
    spo2_hw_cfg.o(i.ConfigDACGPIO) refers to gd32f30x_gpio.o(i.gpio_init) for gpio_init
    spo2_hw_cfg.o(i.ConfigDACGPIO) refers to gd32f30x_dac.o(i.dac_deinit) for dac_deinit
    spo2_hw_cfg.o(i.ConfigDACGPIO) refers to gd32f30x_dac.o(i.dac_concurrent_disable) for dac_concurrent_disable
    spo2_hw_cfg.o(i.ConfigDACGPIO) refers to gd32f30x_dac.o(i.dac_output_buffer_enable) for dac_output_buffer_enable
    spo2_hw_cfg.o(i.ConfigDACGPIO) refers to gd32f30x_dac.o(i.dac_trigger_disable) for dac_trigger_disable
    spo2_hw_cfg.o(i.ConfigDACGPIO) refers to gd32f30x_dac.o(i.dac_wave_mode_config) for dac_wave_mode_config
    spo2_hw_cfg.o(i.ConfigDACGPIO) refers to gd32f30x_dac.o(i.dac_enable) for dac_enable
    spo2_hw_cfg.o(i.ConfigTimer3) refers to gd32f30x_rcu.o(i.rcu_periph_clock_enable) for rcu_periph_clock_enable
    spo2_hw_cfg.o(i.ConfigTimer3) refers to gd32f30x_timer.o(i.timer_deinit) for timer_deinit
    spo2_hw_cfg.o(i.ConfigTimer3) refers to gd32f30x_timer.o(i.timer_struct_para_init) for timer_struct_para_init
    spo2_hw_cfg.o(i.ConfigTimer3) refers to gd32f30x_timer.o(i.timer_init) for timer_init
    spo2_hw_cfg.o(i.ConfigTimer3) refers to gd32f30x_timer.o(i.timer_interrupt_enable) for timer_interrupt_enable
    spo2_hw_cfg.o(i.ConfigTimer3) refers to gd32f30x_misc.o(i.nvic_irq_enable) for nvic_irq_enable
    spo2_hw_cfg.o(i.ConfigTimer3) refers to gd32f30x_timer.o(i.timer_enable) for timer_enable
    spo2_hw_cfg.o(i.GetSPO2_IRData) refers to spo2_hw_cfg.o(.data) for SPO2_IRData
    spo2_hw_cfg.o(i.GetSPO2_REDData) refers to spo2_hw_cfg.o(.data) for SPO2_REDData
    spo2_hw_cfg.o(i.IR_OFF) refers to gd32f30x_gpio.o(i.gpio_bit_set) for gpio_bit_set
    spo2_hw_cfg.o(i.IR_ON) refers to gd32f30x_gpio.o(i.gpio_bit_reset) for gpio_bit_reset
    spo2_hw_cfg.o(i.InitSPO2_HW_CFG) refers to spo2_hw_cfg.o(i.ConfigCSGPIO) for ConfigCSGPIO
    spo2_hw_cfg.o(i.InitSPO2_HW_CFG) refers to spo2_hw_cfg.o(i.ConfigDACGPIO) for ConfigDACGPIO
    spo2_hw_cfg.o(i.InitSPO2_HW_CFG) refers to spo2_hw_cfg.o(i.ConfigTimer3) for ConfigTimer3
    spo2_hw_cfg.o(i.RED_OFF) refers to gd32f30x_gpio.o(i.gpio_bit_set) for gpio_bit_set
    spo2_hw_cfg.o(i.RED_ON) refers to gd32f30x_gpio.o(i.gpio_bit_reset) for gpio_bit_reset
    spo2_hw_cfg.o(i.SetIr_DA_Val) refers to spo2_hw_cfg.o(.data) for ir_DA_Val
    spo2_hw_cfg.o(i.SetRed_DA_Val) refers to spo2_hw_cfg.o(.data) for red_DA_Val
    spo2_hw_cfg.o(i.TIMER3_IRQHandler) refers to gd32f30x_timer.o(i.timer_interrupt_flag_get) for timer_interrupt_flag_get
    spo2_hw_cfg.o(i.TIMER3_IRQHandler) refers to gd32f30x_timer.o(i.timer_interrupt_flag_clear) for timer_interrupt_flag_clear
    spo2_hw_cfg.o(i.TIMER3_IRQHandler) refers to gd32f30x_dac.o(i.dac_data_set) for dac_data_set
    spo2_hw_cfg.o(i.TIMER3_IRQHandler) refers to spo2_hw_cfg.o(i.RED_ON) for RED_ON
    spo2_hw_cfg.o(i.TIMER3_IRQHandler) refers to adc.o(i.GetSPO2) for GetSPO2
    spo2_hw_cfg.o(i.TIMER3_IRQHandler) refers to spo2_hw_cfg.o(i.RED_OFF) for RED_OFF
    spo2_hw_cfg.o(i.TIMER3_IRQHandler) refers to spo2_hw_cfg.o(i.IR_ON) for IR_ON
    spo2_hw_cfg.o(i.TIMER3_IRQHandler) refers to spo2_hw_cfg.o(i.IR_OFF) for IR_OFF
    spo2_hw_cfg.o(i.TIMER3_IRQHandler) refers to spo2_hw_cfg.o(.data) for s_cnt
    spo2.o(i.IR_AdjTask) refers to spo2_hw_cfg.o(i.GetSPO2_IRData) for GetSPO2_IRData
    spo2.o(i.IR_AdjTask) refers to spo2_hw_cfg.o(i.SetIr_DA_Val) for SetIr_DA_Val
    spo2.o(i.IR_AdjTask) refers to filter.o(i.InitIRR_Filter_str) for InitIRR_Filter_str
    spo2.o(i.IR_AdjTask) refers to os_task.o(i.OSTaskResume) for OSTaskResume
    spo2.o(i.IR_AdjTask) refers to os_task.o(i.OSTaskSuspend) for OSTaskSuspend
    spo2.o(i.IR_AdjTask) refers to os_time.o(i.OSTimeDlyHMSM) for OSTimeDlyHMSM
    spo2.o(i.IR_AdjTask) refers to spo2.o(.data) for ir_DA_Val
    spo2.o(i.IR_AdjTask) refers to spo2.o(.bss) for SPO2_IR_f125_15_20hzlp
    spo2.o(i.InitSPO2) refers to memcpya.o(.text) for __aeabi_memcpy4
    spo2.o(i.InitSPO2) refers to spo2_hw_cfg.o(i.InitSPO2_HW_CFG) for InitSPO2_HW_CFG
    spo2.o(i.InitSPO2) refers to filter.o(i.CreatIRR_Filter_str) for CreatIRR_Filter_str
    spo2.o(i.InitSPO2) refers to os_task.o(i.OSTaskCreate) for OSTaskCreate
    spo2.o(i.InitSPO2) refers to printfa.o(i.__0printf) for __2printf
    spo2.o(i.InitSPO2) refers to os_task.o(i.OSTaskSuspend) for OSTaskSuspend
    spo2.o(i.InitSPO2) refers to spo2.o(.constdata) for .constdata
    spo2.o(i.InitSPO2) refers to spo2.o(.bss) for SPO2_IR_f125_15_20hzlp
    spo2.o(i.InitSPO2) refers to filter.o(.constdata) for f125_15_20LP_den
    spo2.o(i.RED_AdjTask) refers to spo2_hw_cfg.o(i.GetSPO2_REDData) for GetSPO2_REDData
    spo2.o(i.RED_AdjTask) refers to spo2_hw_cfg.o(i.SetRed_DA_Val) for SetRed_DA_Val
    spo2.o(i.RED_AdjTask) refers to filter.o(i.InitIRR_Filter_str) for InitIRR_Filter_str
    spo2.o(i.RED_AdjTask) refers to os_task.o(i.OSTaskResume) for OSTaskResume
    spo2.o(i.RED_AdjTask) refers to os_task.o(i.OSTaskSuspend) for OSTaskSuspend
    spo2.o(i.RED_AdjTask) refers to os_time.o(i.OSTimeDlyHMSM) for OSTimeDlyHMSM
    spo2.o(i.RED_AdjTask) refers to spo2.o(.data) for red_DA_Val
    spo2.o(i.RED_AdjTask) refers to spo2.o(.bss) for SPO2_RED_f125_15_20hzlp
    spo2.o(i.SPO2_ProbeTask) refers to spo2_hw_cfg.o(i.GetSPO2_IRData) for GetSPO2_IRData
    spo2.o(i.SPO2_ProbeTask) refers to spo2_hw_cfg.o(i.GetSPO2_REDData) for GetSPO2_REDData
    spo2.o(i.SPO2_ProbeTask) refers to os_task.o(i.OSTaskSuspend) for OSTaskSuspend
    spo2.o(i.SPO2_ProbeTask) refers to printfa.o(i.__0sprintf) for __2sprintf
    spo2.o(i.SPO2_ProbeTask) refers to sprintf.o(i.printf_s_aus) for printf_s_aus
    spo2.o(i.SPO2_ProbeTask) refers to spo2_hw_cfg.o(i.SetRed_DA_Val) for SetRed_DA_Val
    spo2.o(i.SPO2_ProbeTask) refers to spo2_hw_cfg.o(i.SetIr_DA_Val) for SetIr_DA_Val
    spo2.o(i.SPO2_ProbeTask) refers to os_task.o(i.OSTaskResume) for OSTaskResume
    spo2.o(i.SPO2_ProbeTask) refers to os_time.o(i.OSTimeDlyHMSM) for OSTimeDlyHMSM
    spo2.o(i.SPO2_ProbeTask) refers to spo2.o(.data) for SPO2_ProbeStatus
    spo2.o(i.SPO2_ProbeTask) refers to spo2.o(.bss) for g_tcbRED_AdjTask
    spo2.o(i.SPO2_SamplTask) refers to calculate.o(i.FindMax) for FindMax
    spo2.o(i.SPO2_SamplTask) refers to calculate.o(i.FindMin) for FindMin
    spo2.o(i.SPO2_SamplTask) refers to printfa.o(i.__0sprintf) for __2sprintf
    spo2.o(i.SPO2_SamplTask) refers to sprintf.o(i.printf_s_aus) for printf_s_aus
    spo2.o(i.SPO2_SamplTask) refers to spo2_hw_cfg.o(i.GetSPO2_IRData) for GetSPO2_IRData
    spo2.o(i.SPO2_SamplTask) refers to filter.o(i.IIR_Filter) for IIR_Filter
    spo2.o(i.SPO2_SamplTask) refers to spo2_hw_cfg.o(i.GetSPO2_REDData) for GetSPO2_REDData
    spo2.o(i.SPO2_SamplTask) refers to f2d.o(.text) for __aeabi_f2d
    spo2.o(i.SPO2_SamplTask) refers to dmul.o(.text) for __aeabi_dmul
    spo2.o(i.SPO2_SamplTask) refers to dadd.o(.text) for __aeabi_dsub
    spo2.o(i.SPO2_SamplTask) refers to ddiv.o(.text) for __aeabi_ddiv
    spo2.o(i.SPO2_SamplTask) refers to dfixi.o(.text) for __aeabi_d2iz
    spo2.o(i.SPO2_SamplTask) refers to os_time.o(i.OSTimeDly) for OSTimeDly
    spo2.o(i.SPO2_SamplTask) refers to spo2.o(.data) for i
    spo2.o(i.SPO2_SamplTask) refers to spo2.o(.bss) for ir_data_arr
    spo2.o(.constdata) refers to spo2.o(.bss) for g_tcbSPO2_SamplTask
    spo2.o(.constdata) refers to spo2.o(i.SPO2_SamplTask) for SPO2_SamplTask
    spo2.o(.constdata) refers to spo2.o(.conststring) for .conststring
    spo2.o(.constdata) refers to spo2.o(i.SPO2_ProbeTask) for SPO2_ProbeTask
    spo2.o(.constdata) refers to spo2.o(i.RED_AdjTask) for RED_AdjTask
    spo2.o(.constdata) refers to spo2.o(i.IR_AdjTask) for IR_AdjTask
    nibp.o(i.ADtoPre) refers to nibp.o(.data) for coef1
    nibp.o(i.ConfigSw1Gpio) refers to gd32f30x_rcu.o(i.rcu_periph_clock_enable) for rcu_periph_clock_enable
    nibp.o(i.ConfigSw1Gpio) refers to gd32f30x_gpio.o(i.gpio_init) for gpio_init
    nibp.o(i.ConfigSw21EXTI) refers to gd32f30x_rcu.o(i.rcu_periph_clock_enable) for rcu_periph_clock_enable
    nibp.o(i.ConfigSw21EXTI) refers to gd32f30x_gpio.o(i.gpio_exti_source_select) for gpio_exti_source_select
    nibp.o(i.ConfigSw21EXTI) refers to gd32f30x_exti.o(i.exti_init) for exti_init
    nibp.o(i.ConfigSw21EXTI) refers to gd32f30x_misc.o(i.nvic_irq_enable) for nvic_irq_enable
    nibp.o(i.ConfigSw21EXTI) refers to gd32f30x_exti.o(i.exti_interrupt_flag_clear) for exti_interrupt_flag_clear
    nibp.o(i.EXTI10_15_IRQHandler) refers to gd32f30x_exti.o(i.exti_interrupt_flag_get) for exti_interrupt_flag_get
    nibp.o(i.EXTI10_15_IRQHandler) refers to adc.o(i.GetCuff) for GetCuff
    nibp.o(i.EXTI10_15_IRQHandler) refers to printfa.o(i.__0printf) for __2printf
    nibp.o(i.EXTI10_15_IRQHandler) refers to dflti.o(.text) for __aeabi_i2d
    nibp.o(i.EXTI10_15_IRQHandler) refers to ddiv.o(.text) for __aeabi_ddiv
    nibp.o(i.EXTI10_15_IRQHandler) refers to d2f.o(.text) for __aeabi_d2f
    nibp.o(i.EXTI10_15_IRQHandler) refers to gd32f30x_exti.o(i.exti_interrupt_flag_clear) for exti_interrupt_flag_clear
    nibp.o(i.EXTI10_15_IRQHandler) refers to nibp.o(.data) for s_cnt
    nibp.o(i.InitNIBP) refers to memcpya.o(.text) for __aeabi_memcpy4
    nibp.o(i.InitNIBP) refers to nibp_hw_cfg.o(i.InitNIBP_HW_CFG) for InitNIBP_HW_CFG
    nibp.o(i.InitNIBP) refers to nibp.o(i.ConfigSw21EXTI) for ConfigSw21EXTI
    nibp.o(i.InitNIBP) refers to nibp.o(i.ConfigSw1Gpio) for ConfigSw1Gpio
    nibp.o(i.InitNIBP) refers to dflti.o(.text) for __aeabi_i2d
    nibp.o(i.InitNIBP) refers to ddiv.o(.text) for __aeabi_ddiv
    nibp.o(i.InitNIBP) refers to d2f.o(.text) for __aeabi_d2f
    nibp.o(i.InitNIBP) refers to os_task.o(i.OSTaskCreate) for OSTaskCreate
    nibp.o(i.InitNIBP) refers to printfa.o(i.__0printf) for __2printf
    nibp.o(i.InitNIBP) refers to nibp.o(.constdata) for .constdata
    nibp.o(i.InitNIBP) refers to nibp.o(.data) for ad2
    nibp.o(i.NIBP_MeasureTask) refers to adc.o(i.GetCuff) for GetCuff
    nibp.o(i.NIBP_MeasureTask) refers to nibp.o(i.ADtoPre) for ADtoPre
    nibp.o(i.NIBP_MeasureTask) refers to printfa.o(i.__0sprintf) for __2sprintf
    nibp.o(i.NIBP_MeasureTask) refers to sprintf.o(i.printf_s_aus) for printf_s_aus
    nibp.o(i.NIBP_MeasureTask) refers to nibp_hw_cfg.o(i.PUMU_OFF) for PUMU_OFF
    nibp.o(i.NIBP_MeasureTask) refers to nibp_hw_cfg.o(i.VALVE_S_CLOSE) for VALVE_S_CLOSE
    nibp.o(i.NIBP_MeasureTask) refers to nibp_hw_cfg.o(i.PULSE_enable) for PULSE_enable
    nibp.o(i.NIBP_MeasureTask) refers to adc.o(i.GetPulse) for GetPulse
    nibp.o(i.NIBP_MeasureTask) refers to nibp.o(i.FindMin) for FindMin
    nibp.o(i.NIBP_MeasureTask) refers to nibp.o(i.FindMax) for FindMax
    nibp.o(i.NIBP_MeasureTask) refers to dflti.o(.text) for __aeabi_i2d
    nibp.o(i.NIBP_MeasureTask) refers to ddiv.o(.text) for __aeabi_ddiv
    nibp.o(i.NIBP_MeasureTask) refers to f2d.o(.text) for __aeabi_f2d
    nibp.o(i.NIBP_MeasureTask) refers to nibp_hw_cfg.o(i.PULSE_disable) for PULSE_disable
    nibp.o(i.NIBP_MeasureTask) refers to nibp_hw_cfg.o(i.VALVE_S_OPEN) for VALVE_S_OPEN
    nibp.o(i.NIBP_MeasureTask) refers to nibp_hw_cfg.o(i.VALVE_F_OPEN) for VALVE_F_OPEN
    nibp.o(i.NIBP_MeasureTask) refers to polynomialfit.o(i.PolynomialFit) for PolynomialFit
    nibp.o(i.NIBP_MeasureTask) refers to polynomialfit.o(i.FindFirstMaxInPolynomial) for FindFirstMaxInPolynomial
    nibp.o(i.NIBP_MeasureTask) refers to polynomialfit.o(i.CalcPolynomial) for CalcPolynomial
    nibp.o(i.NIBP_MeasureTask) refers to cdrcmple.o(.text) for __aeabi_cdrcmple
    nibp.o(i.NIBP_MeasureTask) refers to dmul.o(.text) for __aeabi_dmul
    nibp.o(i.NIBP_MeasureTask) refers to dadd.o(.text) for __aeabi_dadd
    nibp.o(i.NIBP_MeasureTask) refers to d2f.o(.text) for __aeabi_d2f
    nibp.o(i.NIBP_MeasureTask) refers to polynomialfit.o(i.Polynomia_y_to_x) for Polynomia_y_to_x
    nibp.o(i.NIBP_MeasureTask) refers to dfixi.o(.text) for __aeabi_d2iz
    nibp.o(i.NIBP_MeasureTask) refers to os_task.o(i.OSTaskDel) for OSTaskDel
    nibp.o(i.NIBP_MeasureTask) refers to nibp_hw_cfg.o(i.PUMU_ON) for PUMU_ON
    nibp.o(i.NIBP_MeasureTask) refers to os_time.o(i.OSTimeDlyHMSM) for OSTimeDlyHMSM
    nibp.o(i.NIBP_MeasureTask) refers to nibp.o(.data) for NIBP_flag
    nibp.o(i.NIBP_MeasureTask) refers to nibp.o(.bss) for Pre_PP
    nibp.o(i.NIBP_PreMonitorTask) refers to adc.o(i.GetCuff) for GetCuff
    nibp.o(i.NIBP_PreMonitorTask) refers to nibp.o(i.ADtoPre) for ADtoPre
    nibp.o(i.NIBP_PreMonitorTask) refers to nibp_hw_cfg.o(i.Protect_read) for Protect_read
    nibp.o(i.NIBP_PreMonitorTask) refers to os_task.o(i.OSTaskDel) for OSTaskDel
    nibp.o(i.NIBP_PreMonitorTask) refers to nibp_hw_cfg.o(i.VALVE_F_CLOSE) for VALVE_F_CLOSE
    nibp.o(i.NIBP_PreMonitorTask) refers to nibp_hw_cfg.o(i.VALVE_S_OPEN) for VALVE_S_OPEN
    nibp.o(i.NIBP_PreMonitorTask) refers to nibp_hw_cfg.o(i.PUMU_OFF) for PUMU_OFF
    nibp.o(i.NIBP_PreMonitorTask) refers to os_time.o(i.OSTimeDlyHMSM) for OSTimeDlyHMSM
    nibp.o(i.NIBP_PreMonitorTask) refers to nibp.o(.data) for MeasureTask_RunStatus
    nibp.o(i.NIBP_PreMonitorTask) refers to nibp.o(.bss) for g_tcbNIBP_MeasureTask
    nibp.o(i.NIBP_StarTask) refers to uart2.o(i.ReadUART2) for ReadUART2
    nibp.o(i.NIBP_StarTask) refers to gd32f30x_gpio.o(i.gpio_input_bit_get) for gpio_input_bit_get
    nibp.o(i.NIBP_StarTask) refers to printfa.o(i.__0sprintf) for __2sprintf
    nibp.o(i.NIBP_StarTask) refers to sprintf.o(i.printf_s_aus) for printf_s_aus
    nibp.o(i.NIBP_StarTask) refers to nibp_hw_cfg.o(i.VALVE_F_CLOSE) for VALVE_F_CLOSE
    nibp.o(i.NIBP_StarTask) refers to nibp_hw_cfg.o(i.VALVE_S_CLOSE) for VALVE_S_CLOSE
    nibp.o(i.NIBP_StarTask) refers to nibp_hw_cfg.o(i.PUMU_ON) for PUMU_ON
    nibp.o(i.NIBP_StarTask) refers to os_task.o(i.OSTaskCreate) for OSTaskCreate
    nibp.o(i.NIBP_StarTask) refers to nibp_hw_cfg.o(i.VALVE_F_OPEN) for VALVE_F_OPEN
    nibp.o(i.NIBP_StarTask) refers to nibp_hw_cfg.o(i.VALVE_S_OPEN) for VALVE_S_OPEN
    nibp.o(i.NIBP_StarTask) refers to nibp_hw_cfg.o(i.PUMU_OFF) for PUMU_OFF
    nibp.o(i.NIBP_StarTask) refers to os_task.o(i.OSTaskDel) for OSTaskDel
    nibp.o(i.NIBP_StarTask) refers to os_time.o(i.OSTimeDlyHMSM) for OSTimeDlyHMSM
    nibp.o(i.NIBP_StarTask) refers to nibp.o(.data) for MeasureTask_RunStatus
    nibp.o(i.NIBP_StarTask) refers to nibp.o(.bss) for s_arrNIBP_MeasureStack
    nibp.o(i.NIBP_StarTask) refers to nibp.o(i.NIBP_MeasureTask) for NIBP_MeasureTask
    nibp.o(.constdata) refers to nibp.o(.bss) for g_tcbNIBP_StarTask
    nibp.o(.constdata) refers to nibp.o(i.NIBP_StarTask) for NIBP_StarTask
    nibp.o(.constdata) refers to nibp.o(.conststring) for .conststring
    nibp.o(.constdata) refers to nibp.o(i.NIBP_PreMonitorTask) for NIBP_PreMonitorTask
    nibp_hw_cfg.o(i.Adult_mode) refers to gd32f30x_gpio.o(i.gpio_bit_set) for gpio_bit_set
    nibp_hw_cfg.o(i.Baby_mode) refers to gd32f30x_gpio.o(i.gpio_bit_reset) for gpio_bit_reset
    nibp_hw_cfg.o(i.ConfigNIBPGPIO) refers to gd32f30x_rcu.o(i.rcu_periph_clock_enable) for rcu_periph_clock_enable
    nibp_hw_cfg.o(i.ConfigNIBPGPIO) refers to gd32f30x_gpio.o(i.gpio_init) for gpio_init
    nibp_hw_cfg.o(i.ConfigNIBPGPIO) refers to gd32f30x_gpio.o(i.gpio_bit_set) for gpio_bit_set
    nibp_hw_cfg.o(i.ConfigNIBPGPIO) refers to gd32f30x_gpio.o(i.gpio_bit_reset) for gpio_bit_reset
    nibp_hw_cfg.o(i.InitNIBP_HW_CFG) refers to nibp_hw_cfg.o(i.ConfigNIBPGPIO) for ConfigNIBPGPIO
    nibp_hw_cfg.o(i.PULSE_disable) refers to gd32f30x_gpio.o(i.gpio_bit_reset) for gpio_bit_reset
    nibp_hw_cfg.o(i.PULSE_enable) refers to gd32f30x_gpio.o(i.gpio_bit_set) for gpio_bit_set
    nibp_hw_cfg.o(i.PUMU_OFF) refers to gd32f30x_gpio.o(i.gpio_bit_reset) for gpio_bit_reset
    nibp_hw_cfg.o(i.PUMU_ON) refers to gd32f30x_gpio.o(i.gpio_bit_set) for gpio_bit_set
    nibp_hw_cfg.o(i.Protect_read) refers to gd32f30x_gpio.o(i.gpio_input_bit_get) for gpio_input_bit_get
    nibp_hw_cfg.o(i.VALVE_F_CLOSE) refers to gd32f30x_gpio.o(i.gpio_bit_set) for gpio_bit_set
    nibp_hw_cfg.o(i.VALVE_F_OPEN) refers to gd32f30x_gpio.o(i.gpio_bit_reset) for gpio_bit_reset
    nibp_hw_cfg.o(i.VALVE_S_CLOSE) refers to gd32f30x_gpio.o(i.gpio_bit_set) for gpio_bit_set
    nibp_hw_cfg.o(i.VALVE_S_OPEN) refers to gd32f30x_gpio.o(i.gpio_bit_reset) for gpio_bit_reset
    polynomialfit.o(i.CalcPolyIntegral) refers to dadd.o(.text) for __aeabi_dsub
    polynomialfit.o(i.CalcPolyIntegral) refers to dfixi.o(.text) for __aeabi_d2iz
    polynomialfit.o(i.CalcPolyIntegral) refers to ddiv.o(.text) for __aeabi_ddiv
    polynomialfit.o(i.CalcPolyIntegral) refers to dfltui.o(.text) for __aeabi_ui2d
    polynomialfit.o(i.CalcPolyIntegral) refers to cdrcmple.o(.text) for __aeabi_cdrcmple
    polynomialfit.o(i.CalcPolyIntegral) refers to polynomialfit.o(i.CalcPolynomial) for CalcPolynomial
    polynomialfit.o(i.CalcPolyIntegral) refers to polynomialfit.o(.bss) for b
    polynomialfit.o(i.CalcPolynomial) refers to dmul.o(.text) for __aeabi_dmul
    polynomialfit.o(i.CalcPolynomial) refers to dadd.o(.text) for __aeabi_dadd
    polynomialfit.o(i.CalcPolynomial) refers to polynomialfit.o(.bss) for b
    polynomialfit.o(i.FindFirstMaxInPolynomial) refers to cdrcmple.o(.text) for __aeabi_cdrcmple
    polynomialfit.o(i.FindFirstMaxInPolynomial) refers to dadd.o(.text) for __aeabi_dadd
    polynomialfit.o(i.FindFirstMaxInPolynomial) refers to polynomialfit.o(i.CalcPolynomial) for CalcPolynomial
    polynomialfit.o(i.FindFirstMaxInPolynomial) refers to cdcmple.o(.text) for __aeabi_cdcmple
    polynomialfit.o(i.FindMaxInPolynomial) refers to cdrcmple.o(.text) for __aeabi_cdrcmple
    polynomialfit.o(i.FindMaxInPolynomial) refers to polynomialfit.o(i.CalcPolynomial) for CalcPolynomial
    polynomialfit.o(i.FindMaxInPolynomial) refers to dadd.o(.text) for __aeabi_dadd
    polynomialfit.o(i.FindMaxInPolynomial) refers to cdcmple.o(.text) for __aeabi_cdcmple
    polynomialfit.o(i.Polynomia_y_to_x) refers to f2d.o(.text) for __aeabi_f2d
    polynomialfit.o(i.Polynomia_y_to_x) refers to dadd.o(.text) for __aeabi_drsub
    polynomialfit.o(i.Polynomia_y_to_x) refers to polynomialfit.o(i.CalcPolynomial) for CalcPolynomial
    polynomialfit.o(i.Polynomia_y_to_x) refers to cdrcmple.o(.text) for __aeabi_cdrcmple
    polynomialfit.o(i.Polynomia_y_to_x) refers to cdcmple.o(.text) for __aeabi_cdcmple
    polynomialfit.o(i.PolynomialFit) refers to dmul.o(.text) for __aeabi_dmul
    polynomialfit.o(i.PolynomialFit) refers to dadd.o(.text) for __aeabi_dadd
    polynomialfit.o(i.PolynomialFit) refers to cdrcmple.o(.text) for __aeabi_cdrcmple
    polynomialfit.o(i.PolynomialFit) refers to ddiv.o(.text) for __aeabi_ddiv
    polynomialfit.o(i.PolynomialFit) refers to printfa.o(i.__0printf) for __2printf
    polynomialfit.o(i.PolynomialFit) refers to polynomialfit.o(.bss) for fz
    calculate.o(i.FindMajority) refers to memseta.o(.text) for __aeabi_memclr4
    calculate.o(i.FindPeriod_by_Peak) refers to memseta.o(.text) for __aeabi_memclr4
    calculate.o(i.FindPeriod_by_Peak) refers to calculate.o(i.FindMax) for FindMax
    calculate.o(i.FindPeriod_by_Peak) refers to calculate.o(i.FindMajority) for FindMajority
    sprintf.o(i.InitSprintf) refers to memcpya.o(.text) for __aeabi_memcpy4
    sprintf.o(i.InitSprintf) refers to os_mutex.o(i.OSMutexCreate) for OSMutexCreate
    sprintf.o(i.InitSprintf) refers to printfa.o(i.__0printf) for __2printf
    sprintf.o(i.InitSprintf) refers to os_q.o(i.OSQCreate) for OSQCreate
    sprintf.o(i.InitSprintf) refers to os_task.o(i.OSTaskCreate) for OSTaskCreate
    sprintf.o(i.InitSprintf) refers to sprintf.o(.constdata) for .constdata
    sprintf.o(i.InitSprintf) refers to sprintf.o(.bss) for g_mutexTest
    sprintf.o(i.Printf_task) refers to os_q.o(i.OSQPend) for OSQPend
    sprintf.o(i.Printf_task) refers to printfa.o(i.__0printf) for __2printf
    sprintf.o(i.Printf_task) refers to sprintf.o(.bss) for g_quePrintQueue
    sprintf.o(i.printf_s_aus) refers to os_q.o(i.OSQPost) for OSQPost
    sprintf.o(i.printf_s_aus) refers to sprintf.o(.bss) for g_quePrintQueue
    sprintf.o(.constdata) refers to sprintf.o(.bss) for g_tcbPtintf
    sprintf.o(.constdata) refers to sprintf.o(i.Printf_task) for Printf_task
    sprintf.o(.constdata) refers to sprintf.o(.conststring) for .conststring
    uart0.o(i.ConfigUART) refers to gd32f30x_misc.o(i.nvic_irq_enable) for nvic_irq_enable
    uart0.o(i.ConfigUART) refers to gd32f30x_rcu.o(i.rcu_periph_clock_enable) for rcu_periph_clock_enable
    uart0.o(i.ConfigUART) refers to gd32f30x_gpio.o(i.gpio_init) for gpio_init
    uart0.o(i.ConfigUART) refers to gd32f30x_usart.o(i.usart_deinit) for usart_deinit
    uart0.o(i.ConfigUART) refers to gd32f30x_usart.o(i.usart_baudrate_set) for usart_baudrate_set
    uart0.o(i.ConfigUART) refers to gd32f30x_usart.o(i.usart_stop_bit_set) for usart_stop_bit_set
    uart0.o(i.ConfigUART) refers to gd32f30x_usart.o(i.usart_word_length_set) for usart_word_length_set
    uart0.o(i.ConfigUART) refers to gd32f30x_usart.o(i.usart_parity_config) for usart_parity_config
    uart0.o(i.ConfigUART) refers to gd32f30x_usart.o(i.usart_receive_config) for usart_receive_config
    uart0.o(i.ConfigUART) refers to gd32f30x_usart.o(i.usart_transmit_config) for usart_transmit_config
    uart0.o(i.ConfigUART) refers to gd32f30x_usart.o(i.usart_enable) for usart_enable
    uart0.o(i.ConfigUART) refers to gd32f30x_usart.o(i.usart_interrupt_enable) for usart_interrupt_enable
    uart0.o(i.ConfigUART) refers to uart0.o(.data) for s_iUARTTxSts
    uart0.o(i.EnableUARTTx) refers to gd32f30x_usart.o(i.usart_interrupt_enable) for usart_interrupt_enable
    uart0.o(i.EnableUARTTx) refers to uart0.o(.data) for s_iUARTTxSts
    uart0.o(i.InitUART0) refers to uart0.o(i.InitUARTBuf) for InitUARTBuf
    uart0.o(i.InitUART0) refers to uart0.o(i.ConfigUART) for ConfigUART
    uart0.o(i.InitUARTBuf) refers to queue.o(i.InitQueue) for InitQueue
    uart0.o(i.InitUARTBuf) refers to uart0.o(.bss) for s_arrSendBuf
    uart0.o(i.ReadSendBuf) refers to queue.o(i.DeQueue) for DeQueue
    uart0.o(i.ReadSendBuf) refers to uart0.o(.bss) for s_structUARTSendCirQue
    uart0.o(i.ReadUART0) refers to queue.o(i.DeQueue) for DeQueue
    uart0.o(i.ReadUART0) refers to uart0.o(.bss) for s_structUARTRecCirQue
    uart0.o(i.USART0_IRQHandler) refers to gd32f30x_usart.o(i.usart_interrupt_flag_get) for usart_interrupt_flag_get
    uart0.o(i.USART0_IRQHandler) refers to gd32f30x_usart.o(i.usart_interrupt_flag_clear) for usart_interrupt_flag_clear
    uart0.o(i.USART0_IRQHandler) refers to gd32f30x_usart.o(i.usart_data_receive) for usart_data_receive
    uart0.o(i.USART0_IRQHandler) refers to uart0.o(i.WriteReceiveBuf) for WriteReceiveBuf
    uart0.o(i.USART0_IRQHandler) refers to uart0.o(i.ReadSendBuf) for ReadSendBuf
    uart0.o(i.USART0_IRQHandler) refers to gd32f30x_usart.o(i.usart_data_transmit) for usart_data_transmit
    uart0.o(i.USART0_IRQHandler) refers to queue.o(i.QueueEmpty) for QueueEmpty
    uart0.o(i.USART0_IRQHandler) refers to gd32f30x_usart.o(i.usart_interrupt_disable) for usart_interrupt_disable
    uart0.o(i.USART0_IRQHandler) refers to uart0.o(.bss) for s_structUARTSendCirQue
    uart0.o(i.USART0_IRQHandler) refers to uart0.o(.data) for s_iUARTTxSts
    uart0.o(i.WriteReceiveBuf) refers to queue.o(i.EnQueue) for EnQueue
    uart0.o(i.WriteReceiveBuf) refers to uart0.o(.bss) for s_structUARTRecCirQue
    uart0.o(i.WriteUART0) refers to queue.o(i.EnQueue) for EnQueue
    uart0.o(i.WriteUART0) refers to uart0.o(i.EnableUARTTx) for EnableUARTTx
    uart0.o(i.WriteUART0) refers to uart0.o(.bss) for s_structUARTSendCirQue
    uart0.o(i.WriteUART0) refers to uart0.o(.data) for s_iUARTTxSts
    adc.o(i.ConfigADC0) refers to gd32f30x_rcu.o(i.rcu_adc_clock_config) for rcu_adc_clock_config
    adc.o(i.ConfigADC0) refers to gd32f30x_rcu.o(i.rcu_periph_clock_enable) for rcu_periph_clock_enable
    adc.o(i.ConfigADC0) refers to gd32f30x_gpio.o(i.gpio_init) for gpio_init
    adc.o(i.ConfigADC0) refers to gd32f30x_adc.o(i.adc_mode_config) for adc_mode_config
    adc.o(i.ConfigADC0) refers to gd32f30x_adc.o(i.adc_deinit) for adc_deinit
    adc.o(i.ConfigADC0) refers to gd32f30x_adc.o(i.adc_special_function_config) for adc_special_function_config
    adc.o(i.ConfigADC0) refers to gd32f30x_adc.o(i.adc_resolution_config) for adc_resolution_config
    adc.o(i.ConfigADC0) refers to gd32f30x_adc.o(i.adc_data_alignment_config) for adc_data_alignment_config
    adc.o(i.ConfigADC0) refers to gd32f30x_adc.o(i.adc_channel_length_config) for adc_channel_length_config
    adc.o(i.ConfigADC0) refers to gd32f30x_adc.o(i.adc_external_trigger_config) for adc_external_trigger_config
    adc.o(i.ConfigADC0) refers to gd32f30x_adc.o(i.adc_external_trigger_source_config) for adc_external_trigger_source_config
    adc.o(i.ConfigADC0) refers to gd32f30x_adc.o(i.adc_oversample_mode_disable) for adc_oversample_mode_disable
    adc.o(i.ConfigADC0) refers to gd32f30x_adc.o(i.adc_regular_channel_config) for adc_regular_channel_config
    adc.o(i.ConfigADC0) refers to gd32f30x_adc.o(i.adc_enable) for adc_enable
    adc.o(i.ConfigADC0) refers to gd32f30x_adc.o(i.adc_calibration_enable) for adc_calibration_enable
    adc.o(i.ConfigADC0) refers to gd32f30x_adc.o(i.adc_dma_mode_enable) for adc_dma_mode_enable
    adc.o(i.ConfigADC0) refers to gd32f30x_adc.o(i.adc_software_trigger_enable) for adc_software_trigger_enable
    adc.o(i.ConfigDMA0CH0ForADC0) refers to gd32f30x_rcu.o(i.rcu_periph_clock_enable) for rcu_periph_clock_enable
    adc.o(i.ConfigDMA0CH0ForADC0) refers to gd32f30x_dma.o(i.dma_deinit) for dma_deinit
    adc.o(i.ConfigDMA0CH0ForADC0) refers to gd32f30x_dma.o(i.dma_init) for dma_init
    adc.o(i.ConfigDMA0CH0ForADC0) refers to gd32f30x_dma.o(i.dma_circulation_enable) for dma_circulation_enable
    adc.o(i.ConfigDMA0CH0ForADC0) refers to gd32f30x_dma.o(i.dma_memory_to_memory_disable) for dma_memory_to_memory_disable
    adc.o(i.ConfigDMA0CH0ForADC0) refers to gd32f30x_dma.o(i.dma_channel_enable) for dma_channel_enable
    adc.o(i.ConfigDMA0CH0ForADC0) refers to adc.o(.bss) for s_arrADCBuf
    adc.o(i.GetCuff) refers to adc.o(.bss) for s_arrADCBuf
    adc.o(i.GetEcg) refers to adc.o(.bss) for s_arrADCBuf
    adc.o(i.GetPulse) refers to adc.o(.bss) for s_arrADCBuf
    adc.o(i.GetSPO2) refers to adc.o(.bss) for s_arrADCBuf
    adc.o(i.GetVpro) refers to adc.o(.bss) for s_arrADCBuf
    adc.o(i.InitADC) refers to adc.o(i.ConfigDMA0CH0ForADC0) for ConfigDMA0CH0ForADC0
    adc.o(i.InitADC) refers to adc.o(i.ConfigADC0) for ConfigADC0
    uart1.o(i.ConfigUART) refers to gd32f30x_misc.o(i.nvic_irq_enable) for nvic_irq_enable
    uart1.o(i.ConfigUART) refers to gd32f30x_rcu.o(i.rcu_periph_clock_enable) for rcu_periph_clock_enable
    uart1.o(i.ConfigUART) refers to gd32f30x_gpio.o(i.gpio_init) for gpio_init
    uart1.o(i.ConfigUART) refers to gd32f30x_usart.o(i.usart_deinit) for usart_deinit
    uart1.o(i.ConfigUART) refers to gd32f30x_usart.o(i.usart_baudrate_set) for usart_baudrate_set
    uart1.o(i.ConfigUART) refers to gd32f30x_usart.o(i.usart_stop_bit_set) for usart_stop_bit_set
    uart1.o(i.ConfigUART) refers to gd32f30x_usart.o(i.usart_word_length_set) for usart_word_length_set
    uart1.o(i.ConfigUART) refers to gd32f30x_usart.o(i.usart_parity_config) for usart_parity_config
    uart1.o(i.ConfigUART) refers to gd32f30x_usart.o(i.usart_receive_config) for usart_receive_config
    uart1.o(i.ConfigUART) refers to gd32f30x_usart.o(i.usart_transmit_config) for usart_transmit_config
    uart1.o(i.ConfigUART) refers to gd32f30x_usart.o(i.usart_enable) for usart_enable
    uart1.o(i.ConfigUART) refers to gd32f30x_usart.o(i.usart_interrupt_enable) for usart_interrupt_enable
    uart1.o(i.ConfigUART) refers to uart1.o(.data) for s_iUARTTxSts
    uart1.o(i.EnableUARTTx) refers to gd32f30x_usart.o(i.usart_interrupt_enable) for usart_interrupt_enable
    uart1.o(i.EnableUARTTx) refers to uart1.o(.data) for s_iUARTTxSts
    uart1.o(i.InitUART1) refers to uart1.o(i.InitUARTBuf) for InitUARTBuf
    uart1.o(i.InitUART1) refers to uart1.o(i.ConfigUART) for ConfigUART
    uart1.o(i.InitUARTBuf) refers to queue.o(i.InitQueue) for InitQueue
    uart1.o(i.InitUARTBuf) refers to uart1.o(.bss) for s_arrSendBuf
    uart1.o(i.ReadSendBuf) refers to queue.o(i.DeQueue) for DeQueue
    uart1.o(i.ReadSendBuf) refers to uart1.o(.bss) for s_structUARTSendCirQue
    uart1.o(i.ReadUART1) refers to queue.o(i.DeQueue) for DeQueue
    uart1.o(i.ReadUART1) refers to uart1.o(.bss) for s_structUARTRecCirQue
    uart1.o(i.USART1_IRQHandler) refers to gd32f30x_usart.o(i.usart_interrupt_flag_get) for usart_interrupt_flag_get
    uart1.o(i.USART1_IRQHandler) refers to gd32f30x_usart.o(i.usart_interrupt_flag_clear) for usart_interrupt_flag_clear
    uart1.o(i.USART1_IRQHandler) refers to gd32f30x_usart.o(i.usart_data_receive) for usart_data_receive
    uart1.o(i.USART1_IRQHandler) refers to uart1.o(i.WriteReceiveBuf) for WriteReceiveBuf
    uart1.o(i.USART1_IRQHandler) refers to uart1.o(i.ReadSendBuf) for ReadSendBuf
    uart1.o(i.USART1_IRQHandler) refers to gd32f30x_usart.o(i.usart_data_transmit) for usart_data_transmit
    uart1.o(i.USART1_IRQHandler) refers to queue.o(i.QueueEmpty) for QueueEmpty
    uart1.o(i.USART1_IRQHandler) refers to gd32f30x_usart.o(i.usart_interrupt_disable) for usart_interrupt_disable
    uart1.o(i.USART1_IRQHandler) refers to uart1.o(.bss) for s_structUARTSendCirQue
    uart1.o(i.USART1_IRQHandler) refers to uart1.o(.data) for s_iUARTTxSts
    uart1.o(i.WriteReceiveBuf) refers to queue.o(i.EnQueue) for EnQueue
    uart1.o(i.WriteReceiveBuf) refers to uart1.o(.bss) for s_structUARTRecCirQue
    uart1.o(i.WriteUART1) refers to queue.o(i.EnQueue) for EnQueue
    uart1.o(i.WriteUART1) refers to uart1.o(i.EnableUARTTx) for EnableUARTTx
    uart1.o(i.WriteUART1) refers to uart1.o(.bss) for s_structUARTSendCirQue
    uart1.o(i.WriteUART1) refers to uart1.o(.data) for s_iUARTTxSts
    uart2.o(i.ConfigUART) refers to gd32f30x_misc.o(i.nvic_irq_enable) for nvic_irq_enable
    uart2.o(i.ConfigUART) refers to gd32f30x_rcu.o(i.rcu_periph_clock_enable) for rcu_periph_clock_enable
    uart2.o(i.ConfigUART) refers to gd32f30x_gpio.o(i.gpio_init) for gpio_init
    uart2.o(i.ConfigUART) refers to gd32f30x_usart.o(i.usart_deinit) for usart_deinit
    uart2.o(i.ConfigUART) refers to gd32f30x_usart.o(i.usart_baudrate_set) for usart_baudrate_set
    uart2.o(i.ConfigUART) refers to gd32f30x_usart.o(i.usart_stop_bit_set) for usart_stop_bit_set
    uart2.o(i.ConfigUART) refers to gd32f30x_usart.o(i.usart_word_length_set) for usart_word_length_set
    uart2.o(i.ConfigUART) refers to gd32f30x_usart.o(i.usart_parity_config) for usart_parity_config
    uart2.o(i.ConfigUART) refers to gd32f30x_usart.o(i.usart_receive_config) for usart_receive_config
    uart2.o(i.ConfigUART) refers to gd32f30x_usart.o(i.usart_transmit_config) for usart_transmit_config
    uart2.o(i.ConfigUART) refers to gd32f30x_usart.o(i.usart_enable) for usart_enable
    uart2.o(i.ConfigUART) refers to gd32f30x_usart.o(i.usart_interrupt_enable) for usart_interrupt_enable
    uart2.o(i.ConfigUART) refers to uart2.o(.data) for s_iUARTTxSts
    uart2.o(i.EnableUARTTx) refers to gd32f30x_usart.o(i.usart_interrupt_enable) for usart_interrupt_enable
    uart2.o(i.EnableUARTTx) refers to uart2.o(.data) for s_iUARTTxSts
    uart2.o(i.InitUART2) refers to uart2.o(i.InitUARTBuf) for InitUARTBuf
    uart2.o(i.InitUART2) refers to uart2.o(i.ConfigUART) for ConfigUART
    uart2.o(i.InitUARTBuf) refers to queue.o(i.InitQueue) for InitQueue
    uart2.o(i.InitUARTBuf) refers to uart2.o(.bss) for s_arrSendBuf
    uart2.o(i.ReadSendBuf) refers to queue.o(i.DeQueue) for DeQueue
    uart2.o(i.ReadSendBuf) refers to uart2.o(.bss) for s_structUARTSendCirQue
    uart2.o(i.ReadUART2) refers to queue.o(i.DeQueue) for DeQueue
    uart2.o(i.ReadUART2) refers to uart2.o(.bss) for s_structUARTRecCirQue
    uart2.o(i.USART2_IRQHandler) refers to gd32f30x_usart.o(i.usart_interrupt_flag_get) for usart_interrupt_flag_get
    uart2.o(i.USART2_IRQHandler) refers to gd32f30x_usart.o(i.usart_interrupt_flag_clear) for usart_interrupt_flag_clear
    uart2.o(i.USART2_IRQHandler) refers to gd32f30x_usart.o(i.usart_data_receive) for usart_data_receive
    uart2.o(i.USART2_IRQHandler) refers to uart2.o(i.WriteReceiveBuf) for WriteReceiveBuf
    uart2.o(i.USART2_IRQHandler) refers to uart2.o(i.ReadSendBuf) for ReadSendBuf
    uart2.o(i.USART2_IRQHandler) refers to gd32f30x_usart.o(i.usart_data_transmit) for usart_data_transmit
    uart2.o(i.USART2_IRQHandler) refers to queue.o(i.QueueEmpty) for QueueEmpty
    uart2.o(i.USART2_IRQHandler) refers to gd32f30x_usart.o(i.usart_interrupt_disable) for usart_interrupt_disable
    uart2.o(i.USART2_IRQHandler) refers to uart2.o(.bss) for s_structUARTSendCirQue
    uart2.o(i.USART2_IRQHandler) refers to uart2.o(.data) for s_iUARTTxSts
    uart2.o(i.WriteReceiveBuf) refers to queue.o(i.EnQueue) for EnQueue
    uart2.o(i.WriteReceiveBuf) refers to uart2.o(.bss) for s_structUARTRecCirQue
    uart2.o(i.WriteUART2) refers to queue.o(i.EnQueue) for EnQueue
    uart2.o(i.WriteUART2) refers to uart2.o(i.EnableUARTTx) for EnableUARTTx
    uart2.o(i.WriteUART2) refers to uart2.o(.bss) for s_structUARTSendCirQue
    uart2.o(i.WriteUART2) refers to uart2.o(.data) for s_iUARTTxSts
    uart2.o(i.fputc) refers to gd32f30x_usart.o(i.usart_data_transmit) for usart_data_transmit
    uart2.o(i.fputc) refers to gd32f30x_usart.o(i.usart_flag_get) for usart_flag_get
    gd32f30x_fmc.o(i.fmc_bank0_erase) refers to gd32f30x_fmc.o(i.fmc_bank0_ready_wait) for fmc_bank0_ready_wait
    gd32f30x_fmc.o(i.fmc_bank0_ready_wait) refers to gd32f30x_fmc.o(i.fmc_bank0_state_get) for fmc_bank0_state_get
    gd32f30x_fmc.o(i.fmc_bank1_erase) refers to gd32f30x_fmc.o(i.fmc_bank1_ready_wait) for fmc_bank1_ready_wait
    gd32f30x_fmc.o(i.fmc_bank1_ready_wait) refers to gd32f30x_fmc.o(i.fmc_bank1_state_get) for fmc_bank1_state_get
    gd32f30x_fmc.o(i.fmc_halfword_program) refers to gd32f30x_fmc.o(i.fmc_bank0_ready_wait) for fmc_bank0_ready_wait
    gd32f30x_fmc.o(i.fmc_halfword_program) refers to gd32f30x_fmc.o(i.fmc_bank1_ready_wait) for fmc_bank1_ready_wait
    gd32f30x_fmc.o(i.fmc_mass_erase) refers to gd32f30x_fmc.o(i.fmc_bank0_ready_wait) for fmc_bank0_ready_wait
    gd32f30x_fmc.o(i.fmc_mass_erase) refers to gd32f30x_fmc.o(i.fmc_bank1_ready_wait) for fmc_bank1_ready_wait
    gd32f30x_fmc.o(i.fmc_page_erase) refers to gd32f30x_fmc.o(i.fmc_bank0_ready_wait) for fmc_bank0_ready_wait
    gd32f30x_fmc.o(i.fmc_page_erase) refers to gd32f30x_fmc.o(i.fmc_bank1_ready_wait) for fmc_bank1_ready_wait
    gd32f30x_fmc.o(i.fmc_word_program) refers to gd32f30x_fmc.o(i.fmc_bank0_ready_wait) for fmc_bank0_ready_wait
    gd32f30x_fmc.o(i.fmc_word_program) refers to gd32f30x_fmc.o(i.fmc_bank1_ready_wait) for fmc_bank1_ready_wait
    gd32f30x_fmc.o(i.fmc_word_reprogram) refers to gd32f30x_fmc.o(i.fmc_bank0_ready_wait) for fmc_bank0_ready_wait
    gd32f30x_fmc.o(i.fmc_word_reprogram) refers to gd32f30x_fmc.o(i.fmc_bank1_ready_wait) for fmc_bank1_ready_wait
    gd32f30x_fmc.o(i.ob_data_program) refers to gd32f30x_fmc.o(i.fmc_bank0_ready_wait) for fmc_bank0_ready_wait
    gd32f30x_fmc.o(i.ob_erase) refers to gd32f30x_fmc.o(i.fmc_bank0_ready_wait) for fmc_bank0_ready_wait
    gd32f30x_fmc.o(i.ob_erase) refers to gd32f30x_fmc.o(i.ob_spc_get) for ob_spc_get
    gd32f30x_fmc.o(i.ob_security_protection_config) refers to gd32f30x_fmc.o(i.fmc_bank0_ready_wait) for fmc_bank0_ready_wait
    gd32f30x_fmc.o(i.ob_user_write) refers to gd32f30x_fmc.o(i.fmc_bank0_ready_wait) for fmc_bank0_ready_wait
    gd32f30x_fmc.o(i.ob_write_protection_enable) refers to gd32f30x_fmc.o(i.fmc_bank0_ready_wait) for fmc_bank0_ready_wait
    gd32f30x_gpio.o(i.gpio_afio_deinit) refers to gd32f30x_rcu.o(i.rcu_periph_reset_enable) for rcu_periph_reset_enable
    gd32f30x_gpio.o(i.gpio_afio_deinit) refers to gd32f30x_rcu.o(i.rcu_periph_reset_disable) for rcu_periph_reset_disable
    gd32f30x_gpio.o(i.gpio_deinit) refers to gd32f30x_rcu.o(i.rcu_periph_reset_enable) for rcu_periph_reset_enable
    gd32f30x_gpio.o(i.gpio_deinit) refers to gd32f30x_rcu.o(i.rcu_periph_reset_disable) for rcu_periph_reset_disable
    gd32f30x_misc.o(i.nvic_irq_enable) refers to gd32f30x_misc.o(i.nvic_priority_group_set) for nvic_priority_group_set
    gd32f30x_rcu.o(i.rcu_deinit) refers to gd32f30x_rcu.o(i.rcu_osci_stab_wait) for rcu_osci_stab_wait
    gd32f30x_rcu.o(i.rcu_osci_stab_wait) refers to gd32f30x_rcu.o(i.rcu_flag_get) for rcu_flag_get
    gd32f30x_timer.o(i.timer_deinit) refers to gd32f30x_rcu.o(i.rcu_periph_reset_enable) for rcu_periph_reset_enable
    gd32f30x_timer.o(i.timer_deinit) refers to gd32f30x_rcu.o(i.rcu_periph_reset_disable) for rcu_periph_reset_disable
    gd32f30x_timer.o(i.timer_external_clock_mode0_config) refers to gd32f30x_timer.o(i.timer_external_trigger_config) for timer_external_trigger_config
    gd32f30x_timer.o(i.timer_external_clock_mode1_config) refers to gd32f30x_timer.o(i.timer_external_trigger_config) for timer_external_trigger_config
    gd32f30x_timer.o(i.timer_external_trigger_as_external_clock_config) refers to gd32f30x_timer.o(i.timer_input_trigger_source_select) for timer_input_trigger_source_select
    gd32f30x_timer.o(i.timer_input_capture_config) refers to gd32f30x_timer.o(i.timer_channel_input_capture_prescaler_config) for timer_channel_input_capture_prescaler_config
    gd32f30x_timer.o(i.timer_input_pwm_capture_config) refers to gd32f30x_timer.o(i.timer_channel_input_capture_prescaler_config) for timer_channel_input_capture_prescaler_config
    gd32f30x_timer.o(i.timer_internal_trigger_as_external_clock_config) refers to gd32f30x_timer.o(i.timer_input_trigger_source_select) for timer_input_trigger_source_select
    gd32f30x_usart.o(i.usart_baudrate_set) refers to gd32f30x_rcu.o(i.rcu_clock_freq_get) for rcu_clock_freq_get
    gd32f30x_usart.o(i.usart_deinit) refers to gd32f30x_rcu.o(i.rcu_periph_reset_enable) for rcu_periph_reset_enable
    gd32f30x_usart.o(i.usart_deinit) refers to gd32f30x_rcu.o(i.rcu_periph_reset_disable) for rcu_periph_reset_disable
    gd32f30x_dma.o(i.dma_channel_disable) refers to gd32f30x_dma.o(i.dma_periph_and_channel_check) for dma_periph_and_channel_check
    gd32f30x_dma.o(i.dma_channel_enable) refers to gd32f30x_dma.o(i.dma_periph_and_channel_check) for dma_periph_and_channel_check
    gd32f30x_dma.o(i.dma_circulation_disable) refers to gd32f30x_dma.o(i.dma_periph_and_channel_check) for dma_periph_and_channel_check
    gd32f30x_dma.o(i.dma_circulation_enable) refers to gd32f30x_dma.o(i.dma_periph_and_channel_check) for dma_periph_and_channel_check
    gd32f30x_dma.o(i.dma_deinit) refers to gd32f30x_dma.o(i.dma_periph_and_channel_check) for dma_periph_and_channel_check
    gd32f30x_dma.o(i.dma_init) refers to gd32f30x_dma.o(i.dma_periph_and_channel_check) for dma_periph_and_channel_check
    gd32f30x_dma.o(i.dma_interrupt_disable) refers to gd32f30x_dma.o(i.dma_periph_and_channel_check) for dma_periph_and_channel_check
    gd32f30x_dma.o(i.dma_interrupt_enable) refers to gd32f30x_dma.o(i.dma_periph_and_channel_check) for dma_periph_and_channel_check
    gd32f30x_dma.o(i.dma_memory_address_config) refers to gd32f30x_dma.o(i.dma_periph_and_channel_check) for dma_periph_and_channel_check
    gd32f30x_dma.o(i.dma_memory_increase_disable) refers to gd32f30x_dma.o(i.dma_periph_and_channel_check) for dma_periph_and_channel_check
    gd32f30x_dma.o(i.dma_memory_increase_enable) refers to gd32f30x_dma.o(i.dma_periph_and_channel_check) for dma_periph_and_channel_check
    gd32f30x_dma.o(i.dma_memory_to_memory_disable) refers to gd32f30x_dma.o(i.dma_periph_and_channel_check) for dma_periph_and_channel_check
    gd32f30x_dma.o(i.dma_memory_to_memory_enable) refers to gd32f30x_dma.o(i.dma_periph_and_channel_check) for dma_periph_and_channel_check
    gd32f30x_dma.o(i.dma_memory_width_config) refers to gd32f30x_dma.o(i.dma_periph_and_channel_check) for dma_periph_and_channel_check
    gd32f30x_dma.o(i.dma_periph_address_config) refers to gd32f30x_dma.o(i.dma_periph_and_channel_check) for dma_periph_and_channel_check
    gd32f30x_dma.o(i.dma_periph_increase_disable) refers to gd32f30x_dma.o(i.dma_periph_and_channel_check) for dma_periph_and_channel_check
    gd32f30x_dma.o(i.dma_periph_increase_enable) refers to gd32f30x_dma.o(i.dma_periph_and_channel_check) for dma_periph_and_channel_check
    gd32f30x_dma.o(i.dma_periph_width_config) refers to gd32f30x_dma.o(i.dma_periph_and_channel_check) for dma_periph_and_channel_check
    gd32f30x_dma.o(i.dma_priority_config) refers to gd32f30x_dma.o(i.dma_periph_and_channel_check) for dma_periph_and_channel_check
    gd32f30x_dma.o(i.dma_transfer_direction_config) refers to gd32f30x_dma.o(i.dma_periph_and_channel_check) for dma_periph_and_channel_check
    gd32f30x_dma.o(i.dma_transfer_number_config) refers to gd32f30x_dma.o(i.dma_periph_and_channel_check) for dma_periph_and_channel_check
    gd32f30x_dma.o(i.dma_transfer_number_get) refers to gd32f30x_dma.o(i.dma_periph_and_channel_check) for dma_periph_and_channel_check
    gd32f30x_adc.o(i.adc_deinit) refers to gd32f30x_rcu.o(i.rcu_periph_reset_enable) for rcu_periph_reset_enable
    gd32f30x_adc.o(i.adc_deinit) refers to gd32f30x_rcu.o(i.rcu_periph_reset_disable) for rcu_periph_reset_disable
    gd32f30x_dac.o(i.dac_deinit) refers to gd32f30x_rcu.o(i.rcu_periph_reset_enable) for rcu_periph_reset_enable
    gd32f30x_dac.o(i.dac_deinit) refers to gd32f30x_rcu.o(i.rcu_periph_reset_disable) for rcu_periph_reset_disable
    nvic.o(i.ConfigNVIC) refers to gd32f30x_misc.o(i.nvic_priority_group_set) for nvic_priority_group_set
    nvic.o(i.InitNVIC) refers to nvic.o(i.ConfigNVIC) for ConfigNVIC
    system_gd32f30x.o(i.SystemCoreClockUpdate) refers to system_gd32f30x.o(.data) for SystemCoreClock
    system_gd32f30x.o(i.SystemInit) refers to system_gd32f30x.o(i.system_clock_config) for system_clock_config
    system_gd32f30x.o(i.system_clock_config) refers to system_gd32f30x.o(i.system_clock_120m_hxtal) for system_clock_120m_hxtal
    startup_gd32f30x_hd.o(RESET) refers to startup_gd32f30x_hd.o(STACK) for __initial_sp
    startup_gd32f30x_hd.o(RESET) refers to startup_gd32f30x_hd.o(.text) for Reset_Handler
    startup_gd32f30x_hd.o(RESET) refers to gd32f30x_it.o(i.NMI_Handler) for NMI_Handler
    startup_gd32f30x_hd.o(RESET) refers to gd32f30x_it.o(i.HardFault_Handler) for HardFault_Handler
    startup_gd32f30x_hd.o(RESET) refers to gd32f30x_it.o(i.MemManage_Handler) for MemManage_Handler
    startup_gd32f30x_hd.o(RESET) refers to gd32f30x_it.o(i.BusFault_Handler) for BusFault_Handler
    startup_gd32f30x_hd.o(RESET) refers to gd32f30x_it.o(i.UsageFault_Handler) for UsageFault_Handler
    startup_gd32f30x_hd.o(RESET) refers to gd32f30x_it.o(i.SVC_Handler) for SVC_Handler
    startup_gd32f30x_hd.o(RESET) refers to gd32f30x_it.o(i.DebugMon_Handler) for DebugMon_Handler
    startup_gd32f30x_hd.o(RESET) refers to os_cpu_a.o(CODE) for OS_CPU_PendSVHandler
    startup_gd32f30x_hd.o(RESET) refers to os_cpu_c.o(i.OS_CPU_SysTickHandler) for OS_CPU_SysTickHandler
    startup_gd32f30x_hd.o(RESET) refers to spo2_hw_cfg.o(i.TIMER3_IRQHandler) for TIMER3_IRQHandler
    startup_gd32f30x_hd.o(RESET) refers to uart0.o(i.USART0_IRQHandler) for USART0_IRQHandler
    startup_gd32f30x_hd.o(RESET) refers to uart1.o(i.USART1_IRQHandler) for USART1_IRQHandler
    startup_gd32f30x_hd.o(RESET) refers to uart2.o(i.USART2_IRQHandler) for USART2_IRQHandler
    startup_gd32f30x_hd.o(RESET) refers to nibp.o(i.EXTI10_15_IRQHandler) for EXTI10_15_IRQHandler
    startup_gd32f30x_hd.o(.text) refers to system_gd32f30x.o(i.SystemInit) for SystemInit
    startup_gd32f30x_hd.o(.text) refers to entry.o(.ARM.Collect$$$$00000000) for __main
    bsp.o(i.BSP_CPU_ClkFreq) refers to gd32f30x_rcu.o(i.rcu_clock_freq_get) for rcu_clock_freq_get
    bsp.o(i.BSP_Tick_Init) refers to bsp.o(i.BSP_CPU_ClkFreq) for BSP_CPU_ClkFreq
    bsp.o(i.BSP_Tick_Init) refers to os_cpu_c.o(i.OS_CPU_SysTickInit) for OS_CPU_SysTickInit
    bsp.o(i.BSP_Tick_Init) refers to os_cfg_app.o(.constdata) for OSCfg_TickRate_Hz
    bsp.o(i.CPU_TS32_to_uSec) refers to bsp.o(i.BSP_CPU_ClkFreq) for BSP_CPU_ClkFreq
    bsp.o(i.CPU_TS32_to_uSec) refers to uldiv.o(.text) for __aeabi_uldivmod
    bsp.o(i.CPU_TS_TmrInit) refers to bsp.o(i.BSP_CPU_ClkFreq) for BSP_CPU_ClkFreq
    bsp.o(i.CPU_TS_TmrInit) refers to cpu_core.o(i.CPU_TS_TmrFreqSet) for CPU_TS_TmrFreqSet
    cpu_c.o(i.CPU_IntSrcDis) refers to cpu_a.o(.text) for CPU_SR_Save
    cpu_c.o(i.CPU_IntSrcEn) refers to cpu_a.o(.text) for CPU_SR_Save
    cpu_c.o(i.CPU_IntSrcPendClr) refers to cpu_a.o(.text) for CPU_SR_Save
    cpu_c.o(i.CPU_IntSrcPrioGet) refers to cpu_a.o(.text) for CPU_SR_Save
    cpu_c.o(i.CPU_IntSrcPrioSet) refers to cpu_a.o(.text) for CPU_SR_Save
    cpu_core.o(i.CPU_CntLeadZeros08) refers to cpu_a.o(.text) for CPU_CntLeadZeros
    cpu_core.o(i.CPU_CntLeadZeros16) refers to cpu_a.o(.text) for CPU_CntLeadZeros
    cpu_core.o(i.CPU_CntLeadZeros32) refers to cpu_a.o(.text) for CPU_CntLeadZeros
    cpu_core.o(i.CPU_CntLeadZeros64) refers to cpu_core.o(.constdata) for CPU_CntLeadZerosTbl
    cpu_core.o(i.CPU_CntTrailZeros08) refers to cpu_a.o(.text) for CPU_CntTrailZeros
    cpu_core.o(i.CPU_CntTrailZeros16) refers to cpu_a.o(.text) for CPU_CntTrailZeros
    cpu_core.o(i.CPU_CntTrailZeros32) refers to cpu_a.o(.text) for CPU_CntTrailZeros
    cpu_core.o(i.CPU_CntTrailZeros64) refers to cpu_core.o(i.CPU_CntLeadZeros64) for CPU_CntLeadZeros64
    cpu_core.o(i.CPU_Init) refers to cpu_core.o(i.CPU_TS_Init) for CPU_TS_Init
    cpu_core.o(i.CPU_Init) refers to cpu_core.o(i.CPU_NameInit) for CPU_NameInit
    cpu_core.o(i.CPU_NameClr) refers to cpu_a.o(.text) for CPU_SR_Save
    cpu_core.o(i.CPU_NameClr) refers to lib_mem.o(i.Mem_Clr) for Mem_Clr
    cpu_core.o(i.CPU_NameClr) refers to cpu_core.o(.bss) for CPU_Name
    cpu_core.o(i.CPU_NameGet) refers to cpu_core.o(i.CPU_SW_Exception) for CPU_SW_Exception
    cpu_core.o(i.CPU_NameGet) refers to cpu_a.o(.text) for CPU_SR_Save
    cpu_core.o(i.CPU_NameGet) refers to lib_str.o(i.Str_Copy_N) for Str_Copy_N
    cpu_core.o(i.CPU_NameGet) refers to cpu_core.o(.bss) for CPU_Name
    cpu_core.o(i.CPU_NameInit) refers to cpu_core.o(i.CPU_NameClr) for CPU_NameClr
    cpu_core.o(i.CPU_NameSet) refers to cpu_core.o(i.CPU_SW_Exception) for CPU_SW_Exception
    cpu_core.o(i.CPU_NameSet) refers to lib_str.o(i.Str_Len_N) for Str_Len_N
    cpu_core.o(i.CPU_NameSet) refers to cpu_a.o(.text) for CPU_SR_Save
    cpu_core.o(i.CPU_NameSet) refers to lib_str.o(i.Str_Copy_N) for Str_Copy_N
    cpu_core.o(i.CPU_NameSet) refers to cpu_core.o(.bss) for CPU_Name
    cpu_core.o(i.CPU_TS_Get32) refers to bsp.o(i.CPU_TS_TmrRd) for CPU_TS_TmrRd
    cpu_core.o(i.CPU_TS_Init) refers to bsp.o(i.CPU_TS_TmrInit) for CPU_TS_TmrInit
    cpu_core.o(i.CPU_TS_Init) refers to cpu_core.o(.data) for CPU_TS_TmrFreq_Hz
    cpu_core.o(i.CPU_TS_TmrFreqGet) refers to cpu_core.o(i.CPU_SW_Exception) for CPU_SW_Exception
    cpu_core.o(i.CPU_TS_TmrFreqGet) refers to cpu_core.o(.data) for CPU_TS_TmrFreq_Hz
    cpu_core.o(i.CPU_TS_TmrFreqSet) refers to cpu_core.o(.data) for CPU_TS_TmrFreq_Hz
    lib_ascii.o(i.ASCII_Cmp) refers to lib_ascii.o(i.ASCII_ToUpper) for ASCII_ToUpper
    lib_math.o(i.Math_Init) refers to lib_math.o(i.Math_RandSetSeed) for Math_RandSetSeed
    lib_math.o(i.Math_Rand) refers to cpu_a.o(.text) for CPU_SR_Save
    lib_math.o(i.Math_Rand) refers to lib_math.o(i.Math_RandSeed) for Math_RandSeed
    lib_math.o(i.Math_Rand) refers to lib_math.o(.data) for Math_RandSeedCur
    lib_math.o(i.Math_RandSetSeed) refers to cpu_a.o(.text) for CPU_SR_Save
    lib_math.o(i.Math_RandSetSeed) refers to lib_math.o(.data) for Math_RandSeedCur
    lib_mem.o(i.Mem_Clr) refers to lib_mem.o(i.Mem_Set) for Mem_Set
    lib_mem.o(i.Mem_DynPoolBlkFree) refers to cpu_a.o(.text) for CPU_SR_Save
    lib_mem.o(i.Mem_DynPoolBlkGet) refers to cpu_a.o(.text) for CPU_SR_Save
    lib_mem.o(i.Mem_DynPoolBlkGet) refers to lib_mem.o(i.Mem_SegAllocInternal) for Mem_SegAllocInternal
    lib_mem.o(i.Mem_DynPoolBlkNbrAvailGet) refers to cpu_a.o(.text) for CPU_SR_Save
    lib_mem.o(i.Mem_DynPoolCreate) refers to lib_mem.o(i.Mem_DynPoolCreateInternal) for Mem_DynPoolCreateInternal
    lib_mem.o(i.Mem_DynPoolCreate) refers to lib_mem.o(.bss) for Mem_SegHeap
    lib_mem.o(i.Mem_DynPoolCreateHW) refers to lib_mem.o(i.Mem_DynPoolCreateInternal) for Mem_DynPoolCreateInternal
    lib_mem.o(i.Mem_DynPoolCreateHW) refers to lib_mem.o(.bss) for Mem_SegHeap
    lib_mem.o(i.Mem_DynPoolCreateInternal) refers to lib_mem.o(i.Mem_SegAllocInternal) for Mem_SegAllocInternal
    lib_mem.o(i.Mem_HeapAlloc) refers to lib_mem.o(i.Mem_SegAllocInternal) for Mem_SegAllocInternal
    lib_mem.o(i.Mem_HeapAlloc) refers to lib_mem.o(.bss) for Mem_SegHeap
    lib_mem.o(i.Mem_HeapGetSizeRem) refers to lib_mem.o(i.Mem_SegRemSizeGet) for Mem_SegRemSizeGet
    lib_mem.o(i.Mem_HeapGetSizeRem) refers to lib_mem.o(.bss) for Mem_SegHeap
    lib_mem.o(i.Mem_Init) refers to lib_mem.o(i.Mem_SegCreate) for Mem_SegCreate
    lib_mem.o(i.Mem_Init) refers to cpu_core.o(i.CPU_SW_Exception) for CPU_SW_Exception
    lib_mem.o(i.Mem_Init) refers to lib_mem.o(.data) for Mem_SegHeadPtr
    lib_mem.o(i.Mem_Init) refers to lib_mem.o(.bss) for Mem_Heap
    lib_mem.o(i.Mem_Move) refers to lib_mem_a.o(.text) for Mem_Copy
    lib_mem.o(i.Mem_PoolBlkFree) refers to cpu_a.o(.text) for CPU_SR_Save
    lib_mem.o(i.Mem_PoolBlkGet) refers to cpu_a.o(.text) for CPU_SR_Save
    lib_mem.o(i.Mem_PoolBlkGetNbrAvail) refers to cpu_a.o(.text) for CPU_SR_Save
    lib_mem.o(i.Mem_PoolCreate) refers to lib_mem.o(i.Mem_PoolClr) for Mem_PoolClr
    lib_mem.o(i.Mem_PoolCreate) refers to cpu_a.o(.text) for CPU_SR_Save
    lib_mem.o(i.Mem_PoolCreate) refers to lib_mem.o(i.Mem_SegOverlapChkCritical) for Mem_SegOverlapChkCritical
    lib_mem.o(i.Mem_PoolCreate) refers to lib_mem.o(i.Mem_SegAllocExtCritical) for Mem_SegAllocExtCritical
    lib_mem.o(i.Mem_PoolCreate) refers to lib_mem.o(i.Mem_SegCreateCritical) for Mem_SegCreateCritical
    lib_mem.o(i.Mem_PoolCreate) refers to lib_mem.o(i.Mem_SegAllocInternal) for Mem_SegAllocInternal
    lib_mem.o(i.Mem_PoolCreate) refers to lib_mem.o(.bss) for Mem_SegHeap
    lib_mem.o(i.Mem_SegAlloc) refers to lib_mem.o(i.Mem_SegAllocInternal) for Mem_SegAllocInternal
    lib_mem.o(i.Mem_SegAlloc) refers to lib_mem.o(.bss) for Mem_SegHeap
    lib_mem.o(i.Mem_SegAllocExt) refers to lib_mem.o(i.Mem_SegAllocInternal) for Mem_SegAllocInternal
    lib_mem.o(i.Mem_SegAllocExt) refers to lib_mem.o(.bss) for Mem_SegHeap
    lib_mem.o(i.Mem_SegAllocHW) refers to lib_mem.o(i.Mem_SegAllocInternal) for Mem_SegAllocInternal
    lib_mem.o(i.Mem_SegAllocHW) refers to lib_mem.o(.bss) for Mem_SegHeap
    lib_mem.o(i.Mem_SegAllocInternal) refers to cpu_a.o(.text) for CPU_SR_Save
    lib_mem.o(i.Mem_SegAllocInternal) refers to lib_mem.o(i.Mem_SegAllocExtCritical) for Mem_SegAllocExtCritical
    lib_mem.o(i.Mem_SegClr) refers to cpu_a.o(.text) for CPU_SR_Save
    lib_mem.o(i.Mem_SegCreate) refers to cpu_a.o(.text) for CPU_SR_Save
    lib_mem.o(i.Mem_SegCreate) refers to lib_mem.o(i.Mem_SegCreateCritical) for Mem_SegCreateCritical
    lib_mem.o(i.Mem_SegCreateCritical) refers to lib_mem.o(.data) for Mem_SegHeadPtr
    lib_mem.o(i.Mem_SegOverlapChkCritical) refers to lib_mem.o(.data) for Mem_SegHeadPtr
    lib_mem.o(i.Mem_SegRemSizeGet) refers to cpu_a.o(.text) for CPU_SR_Save
    lib_mem.o(i.Mem_SegRemSizeGet) refers to lib_mem.o(.bss) for Mem_SegHeap
    lib_str.o(i.Str_Cat) refers to lib_str.o(i.Str_Cat_N) for Str_Cat_N
    lib_str.o(i.Str_Char) refers to lib_str.o(i.Str_Char_N) for Str_Char_N
    lib_str.o(i.Str_Char_Last) refers to lib_str.o(i.Str_Char_Last_N) for Str_Char_Last_N
    lib_str.o(i.Str_Char_Last_N) refers to lib_str.o(i.Str_Len_N) for Str_Len_N
    lib_str.o(i.Str_Char_Replace) refers to lib_str.o(i.Str_Char_Replace_N) for Str_Char_Replace_N
    lib_str.o(i.Str_Cmp) refers to lib_str.o(i.Str_Cmp_N) for Str_Cmp_N
    lib_str.o(i.Str_CmpIgnoreCase) refers to lib_str.o(i.Str_CmpIgnoreCase_N) for Str_CmpIgnoreCase_N
    lib_str.o(i.Str_CmpIgnoreCase_N) refers to lib_ascii.o(i.ASCII_ToLower) for ASCII_ToLower
    lib_str.o(i.Str_Copy) refers to lib_str.o(i.Str_Copy_N) for Str_Copy_N
    lib_str.o(i.Str_FmtNbr_Int32) refers to lib_ascii.o(i.ASCII_IsPrint) for ASCII_IsPrint
    lib_str.o(i.Str_FmtNbr_Int32S) refers to lib_str.o(i.Str_FmtNbr_Int32) for Str_FmtNbr_Int32
    lib_str.o(i.Str_FmtNbr_Int32U) refers to lib_str.o(i.Str_FmtNbr_Int32) for Str_FmtNbr_Int32
    lib_str.o(i.Str_Len) refers to lib_str.o(i.Str_Len_N) for Str_Len_N
    lib_str.o(i.Str_ParseNbr_Int32) refers to lib_ascii.o(i.ASCII_IsSpace) for ASCII_IsSpace
    lib_str.o(i.Str_ParseNbr_Int32) refers to lib_ascii.o(i.ASCII_IsDigHex) for ASCII_IsDigHex
    lib_str.o(i.Str_ParseNbr_Int32) refers to lib_ascii.o(i.ASCII_IsAlphaNum) for ASCII_IsAlphaNum
    lib_str.o(i.Str_ParseNbr_Int32) refers to lib_ascii.o(i.ASCII_IsDig) for ASCII_IsDig
    lib_str.o(i.Str_ParseNbr_Int32) refers to lib_ascii.o(i.ASCII_IsLower) for ASCII_IsLower
    lib_str.o(i.Str_ParseNbr_Int32) refers to lib_str.o(.constdata) for Str_MultOvfThTbl_Int32U
    lib_str.o(i.Str_ParseNbr_Int32S) refers to lib_str.o(i.Str_ParseNbr_Int32) for Str_ParseNbr_Int32
    lib_str.o(i.Str_ParseNbr_Int32U) refers to lib_str.o(i.Str_ParseNbr_Int32) for Str_ParseNbr_Int32
    lib_str.o(i.Str_Str) refers to lib_str.o(i.Str_Str_N) for Str_Str_N
    lib_str.o(i.Str_Str_N) refers to lib_str.o(i.Str_Len_N) for Str_Len_N
    lib_str.o(i.Str_Str_N) refers to lib_str.o(i.Str_Cmp_N) for Str_Cmp_N
    os_cfg_app.o(.constdata) refers to os_cfg_app.o(.bss) for OSCfg_IdleTaskStk
    os_core.o(i.OSInit) refers to os_cpu_c.o(i.OSInitHook) for OSInitHook
    os_core.o(i.OSInit) refers to os_prio.o(i.OS_PrioInit) for OS_PrioInit
    os_core.o(i.OSInit) refers to os_core.o(i.OS_RdyListInit) for OS_RdyListInit
    os_core.o(i.OSInit) refers to os_flag.o(i.OS_FlagInit) for OS_FlagInit
    os_core.o(i.OSInit) refers to os_mem.o(i.OS_MemInit) for OS_MemInit
    os_core.o(i.OSInit) refers to os_msg.o(i.OS_MsgPoolInit) for OS_MsgPoolInit
    os_core.o(i.OSInit) refers to os_mutex.o(i.OS_MutexInit) for OS_MutexInit
    os_core.o(i.OSInit) refers to os_q.o(i.OS_QInit) for OS_QInit
    os_core.o(i.OSInit) refers to os_sem.o(i.OS_SemInit) for OS_SemInit
    os_core.o(i.OSInit) refers to os_task.o(i.OS_TaskInit) for OS_TaskInit
    os_core.o(i.OSInit) refers to os_core.o(i.OS_IdleTaskInit) for OS_IdleTaskInit
    os_core.o(i.OSInit) refers to os_tick.o(i.OS_TickTaskInit) for OS_TickTaskInit
    os_core.o(i.OSInit) refers to os_stat.o(i.OS_StatTaskInit) for OS_StatTaskInit
    os_core.o(i.OSInit) refers to os_tmr.o(i.OS_TmrInit) for OS_TmrInit
    os_core.o(i.OSInit) refers to os_dbg.o(i.OS_Dbg_Init) for OS_Dbg_Init
    os_core.o(i.OSInit) refers to os_cfg_app.o(i.OSCfg_Init) for OSCfg_Init
    os_core.o(i.OSInit) refers to os_var.o(.data) for OSIntNestingCtr
    os_core.o(i.OSInit) refers to os_cfg_app.o(.constdata) for OSCfg_ISRStkSize
    os_core.o(i.OSIntEnter) refers to os_var.o(.data) for OSRunning
    os_core.o(i.OSIntExit) refers to cpu_a.o(.text) for CPU_SR_Save
    os_core.o(i.OSIntExit) refers to os_prio.o(i.OS_PrioGetHighest) for OS_PrioGetHighest
    os_core.o(i.OSIntExit) refers to os_cpu_a.o(CODE) for OSIntCtxSw
    os_core.o(i.OSIntExit) refers to os_var.o(.data) for OSRunning
    os_core.o(i.OSIntExit) refers to os_var.o(.bss) for OSRdyList
    os_core.o(i.OSSched) refers to cpu_a.o(.text) for CPU_SR_Save
    os_core.o(i.OSSched) refers to os_prio.o(i.OS_PrioGetHighest) for OS_PrioGetHighest
    os_core.o(i.OSSched) refers to os_cpu_a.o(CODE) for OSCtxSw
    os_core.o(i.OSSched) refers to os_var.o(.data) for OSIntNestingCtr
    os_core.o(i.OSSched) refers to os_var.o(.bss) for OSRdyList
    os_core.o(i.OSSchedLock) refers to cpu_a.o(.text) for CPU_SR_Save
    os_core.o(i.OSSchedLock) refers to os_core.o(i.OS_SchedLockTimeMeasStart) for OS_SchedLockTimeMeasStart
    os_core.o(i.OSSchedLock) refers to os_var.o(.data) for OSRunning
    os_core.o(i.OSSchedUnlock) refers to cpu_a.o(.text) for CPU_SR_Save
    os_core.o(i.OSSchedUnlock) refers to os_core.o(i.OS_SchedLockTimeMeasStop) for OS_SchedLockTimeMeasStop
    os_core.o(i.OSSchedUnlock) refers to os_core.o(i.OSSched) for OSSched
    os_core.o(i.OSSchedUnlock) refers to os_var.o(.data) for OSRunning
    os_core.o(i.OSStart) refers to os_prio.o(i.OS_PrioGetHighest) for OS_PrioGetHighest
    os_core.o(i.OSStart) refers to os_cpu_a.o(CODE) for OSStartHighRdy
    os_core.o(i.OSStart) refers to os_var.o(.data) for OSRunning
    os_core.o(i.OSStart) refers to os_var.o(.bss) for OSRdyList
    os_core.o(i.OS_IdleTask) refers to cpu_a.o(.text) for CPU_SR_Save
    os_core.o(i.OS_IdleTask) refers to os_cpu_c.o(i.OSIdleTaskHook) for OSIdleTaskHook
    os_core.o(i.OS_IdleTask) refers to os_var.o(.data) for OSIdleTaskCtr
    os_core.o(i.OS_IdleTaskInit) refers to os_task.o(i.OSTaskCreate) for OSTaskCreate
    os_core.o(i.OS_IdleTaskInit) refers to os_var.o(.data) for OSIdleTaskCtr
    os_core.o(i.OS_IdleTaskInit) refers to os_cfg_app.o(.constdata) for OSCfg_IdleTaskStkSize
    os_core.o(i.OS_IdleTaskInit) refers to os_core.o(i.OS_IdleTask) for OS_IdleTask
    os_core.o(i.OS_IdleTaskInit) refers to os_var.o(.bss) for OSIdleTaskTCB
    os_core.o(i.OS_Pend) refers to os_core.o(i.OS_TaskBlock) for OS_TaskBlock
    os_core.o(i.OS_Pend) refers to os_core.o(i.OS_PendDataInit) for OS_PendDataInit
    os_core.o(i.OS_Pend) refers to os_core.o(i.OS_PendListInsertPrio) for OS_PendListInsertPrio
    os_core.o(i.OS_Pend) refers to os_core.o(i.OS_PendDbgNameAdd) for OS_PendDbgNameAdd
    os_core.o(i.OS_Pend) refers to os_var.o(.data) for OSTCBCurPtr
    os_core.o(i.OS_PendAbort) refers to os_core.o(i.OS_PendAbort1) for OS_PendAbort1
    os_core.o(i.OS_PendAbort) refers to os_core.o(i.OS_PendListRemove) for OS_PendListRemove
    os_core.o(i.OS_PendAbort) refers to os_tick.o(i.OS_TickListRemove) for OS_TickListRemove
    os_core.o(i.OS_PendAbort) refers to os_core.o(i.OS_RdyListInsert) for OS_RdyListInsert
    os_core.o(i.OS_PendListChangePrio) refers to os_core.o(i.OS_PendListRemove1) for OS_PendListRemove1
    os_core.o(i.OS_PendListChangePrio) refers to os_core.o(i.OS_PendListInsertPrio) for OS_PendListInsertPrio
    os_core.o(i.OS_PendListRemove) refers to os_core.o(i.OS_PendListRemove1) for OS_PendListRemove1
    os_core.o(i.OS_PendObjDel) refers to os_core.o(i.OS_PendObjDel1) for OS_PendObjDel1
    os_core.o(i.OS_PendObjDel) refers to os_core.o(i.OS_PendListRemove) for OS_PendListRemove
    os_core.o(i.OS_PendObjDel) refers to os_tick.o(i.OS_TickListRemove) for OS_TickListRemove
    os_core.o(i.OS_PendObjDel) refers to os_core.o(i.OS_RdyListInsert) for OS_RdyListInsert
    os_core.o(i.OS_Post) refers to os_core.o(i.OS_Post1) for OS_Post1
    os_core.o(i.OS_Post) refers to os_core.o(i.OS_PendListRemove) for OS_PendListRemove
    os_core.o(i.OS_Post) refers to os_core.o(i.OS_PendDbgNameRemove) for OS_PendDbgNameRemove
    os_core.o(i.OS_Post) refers to os_tick.o(i.OS_TickListRemove) for OS_TickListRemove
    os_core.o(i.OS_Post) refers to os_core.o(i.OS_RdyListInsert) for OS_RdyListInsert
    os_core.o(i.OS_RdyListInit) refers to os_var.o(.bss) for OSRdyList
    os_core.o(i.OS_RdyListInsert) refers to os_prio.o(i.OS_PrioInsert) for OS_PrioInsert
    os_core.o(i.OS_RdyListInsert) refers to os_core.o(i.OS_RdyListInsertTail) for OS_RdyListInsertTail
    os_core.o(i.OS_RdyListInsert) refers to os_core.o(i.OS_RdyListInsertHead) for OS_RdyListInsertHead
    os_core.o(i.OS_RdyListInsert) refers to os_var.o(.data) for OSPrioCur
    os_core.o(i.OS_RdyListInsertHead) refers to os_var.o(.bss) for OSRdyList
    os_core.o(i.OS_RdyListInsertTail) refers to os_var.o(.bss) for OSRdyList
    os_core.o(i.OS_RdyListRemove) refers to os_prio.o(i.OS_PrioRemove) for OS_PrioRemove
    os_core.o(i.OS_RdyListRemove) refers to os_var.o(.bss) for OSRdyList
    os_core.o(i.OS_SchedLockTimeMeasStart) refers to bsp.o(i.CPU_TS_TmrRd) for CPU_TS_TmrRd
    os_core.o(i.OS_SchedLockTimeMeasStart) refers to os_var.o(.data) for OSSchedLockNestingCtr
    os_core.o(i.OS_SchedLockTimeMeasStop) refers to bsp.o(i.CPU_TS_TmrRd) for CPU_TS_TmrRd
    os_core.o(i.OS_SchedLockTimeMeasStop) refers to os_var.o(.data) for OSSchedLockNestingCtr
    os_core.o(i.OS_TaskBlock) refers to os_tick.o(i.OS_TickListInsert) for OS_TickListInsert
    os_core.o(i.OS_TaskBlock) refers to os_core.o(i.OS_RdyListRemove) for OS_RdyListRemove
    os_core.o(i.OS_TaskBlock) refers to os_var.o(.data) for OSTickListTimeout
    os_dbg.o(i.OS_Dbg_Init) refers to os_dbg.o(.constdata) for OSDbg_DbgEn
    os_flag.o(i.OSFlagCreate) refers to cpu_a.o(.text) for CPU_SR_Save
    os_flag.o(i.OSFlagCreate) refers to os_core.o(i.OS_PendListInit) for OS_PendListInit
    os_flag.o(i.OSFlagCreate) refers to os_flag.o(i.OS_FlagDbgListAdd) for OS_FlagDbgListAdd
    os_flag.o(i.OSFlagCreate) refers to os_var.o(.data) for OSFlagQty
    os_flag.o(i.OSFlagDel) refers to cpu_a.o(.text) for CPU_SR_Save
    os_flag.o(i.OSFlagDel) refers to os_flag.o(i.OS_FlagDbgListRemove) for OS_FlagDbgListRemove
    os_flag.o(i.OSFlagDel) refers to os_flag.o(i.OS_FlagClr) for OS_FlagClr
    os_flag.o(i.OSFlagDel) refers to bsp.o(i.CPU_TS_TmrRd) for CPU_TS_TmrRd
    os_flag.o(i.OSFlagDel) refers to os_core.o(i.OS_PendObjDel) for OS_PendObjDel
    os_flag.o(i.OSFlagDel) refers to os_core.o(i.OSSched) for OSSched
    os_flag.o(i.OSFlagDel) refers to os_var.o(.data) for OSFlagQty
    os_flag.o(i.OSFlagPend) refers to cpu_a.o(.text) for CPU_SR_Save
    os_flag.o(i.OSFlagPend) refers to os_flag.o(i.OS_FlagBlock) for OS_FlagBlock
    os_flag.o(i.OSFlagPend) refers to os_core.o(i.OSSched) for OSSched
    os_flag.o(i.OSFlagPend) refers to os_var.o(.data) for OSTCBCurPtr
    os_flag.o(i.OSFlagPendAbort) refers to cpu_a.o(.text) for CPU_SR_Save
    os_flag.o(i.OSFlagPendAbort) refers to bsp.o(i.CPU_TS_TmrRd) for CPU_TS_TmrRd
    os_flag.o(i.OSFlagPendAbort) refers to os_core.o(i.OS_PendAbort) for OS_PendAbort
    os_flag.o(i.OSFlagPendAbort) refers to os_core.o(i.OSSched) for OSSched
    os_flag.o(i.OSFlagPendGetFlagsRdy) refers to cpu_a.o(.text) for CPU_SR_Save
    os_flag.o(i.OSFlagPendGetFlagsRdy) refers to os_var.o(.data) for OSTCBCurPtr
    os_flag.o(i.OSFlagPost) refers to bsp.o(i.CPU_TS_TmrRd) for CPU_TS_TmrRd
    os_flag.o(i.OSFlagPost) refers to os_flag.o(i.OS_FlagPost) for OS_FlagPost
    os_flag.o(i.OS_FlagBlock) refers to os_core.o(i.OS_Pend) for OS_Pend
    os_flag.o(i.OS_FlagBlock) refers to os_var.o(.data) for OSTCBCurPtr
    os_flag.o(i.OS_FlagClr) refers to os_core.o(i.OS_PendListInit) for OS_PendListInit
    os_flag.o(i.OS_FlagDbgListAdd) refers to os_var.o(.data) for OSFlagDbgListPtr
    os_flag.o(i.OS_FlagDbgListRemove) refers to os_var.o(.data) for OSFlagDbgListPtr
    os_flag.o(i.OS_FlagInit) refers to os_var.o(.data) for OSFlagDbgListPtr
    os_flag.o(i.OS_FlagPost) refers to cpu_a.o(.text) for CPU_SR_Save
    os_flag.o(i.OS_FlagPost) refers to os_flag.o(i.OS_FlagTaskRdy) for OS_FlagTaskRdy
    os_flag.o(i.OS_FlagPost) refers to os_core.o(i.OSSched) for OSSched
    os_flag.o(i.OS_FlagTaskRdy) refers to os_tick.o(i.OS_TickListRemove) for OS_TickListRemove
    os_flag.o(i.OS_FlagTaskRdy) refers to os_core.o(i.OS_RdyListInsert) for OS_RdyListInsert
    os_flag.o(i.OS_FlagTaskRdy) refers to os_core.o(i.OS_PendListRemove) for OS_PendListRemove
    os_mem.o(i.OSMemCreate) refers to cpu_a.o(.text) for CPU_SR_Save
    os_mem.o(i.OSMemCreate) refers to os_mem.o(i.OS_MemDbgListAdd) for OS_MemDbgListAdd
    os_mem.o(i.OSMemCreate) refers to os_var.o(.data) for OSMemQty
    os_mem.o(i.OSMemGet) refers to cpu_a.o(.text) for CPU_SR_Save
    os_mem.o(i.OSMemPut) refers to cpu_a.o(.text) for CPU_SR_Save
    os_mem.o(i.OS_MemDbgListAdd) refers to os_var.o(.data) for OSMemDbgListPtr
    os_mem.o(i.OS_MemInit) refers to os_var.o(.data) for OSMemDbgListPtr
    os_msg.o(i.OS_MsgPoolInit) refers to os_cfg_app.o(.constdata) for OSCfg_MsgPoolBasePtr
    os_msg.o(i.OS_MsgPoolInit) refers to os_var.o(.bss) for OSMsgPool
    os_msg.o(i.OS_MsgQFreeAll) refers to os_var.o(.bss) for OSMsgPool
    os_msg.o(i.OS_MsgQGet) refers to os_var.o(.bss) for OSMsgPool
    os_msg.o(i.OS_MsgQPut) refers to os_var.o(.bss) for OSMsgPool
    os_mutex.o(i.OSMutexCreate) refers to cpu_a.o(.text) for CPU_SR_Save
    os_mutex.o(i.OSMutexCreate) refers to os_core.o(i.OS_PendListInit) for OS_PendListInit
    os_mutex.o(i.OSMutexCreate) refers to os_mutex.o(i.OS_MutexDbgListAdd) for OS_MutexDbgListAdd
    os_mutex.o(i.OSMutexCreate) refers to os_var.o(.data) for OSMutexQty
    os_mutex.o(i.OSMutexDel) refers to cpu_a.o(.text) for CPU_SR_Save
    os_mutex.o(i.OSMutexDel) refers to os_mutex.o(i.OS_MutexDbgListRemove) for OS_MutexDbgListRemove
    os_mutex.o(i.OSMutexDel) refers to os_mutex.o(i.OS_MutexGrpRemove) for OS_MutexGrpRemove
    os_mutex.o(i.OSMutexDel) refers to os_mutex.o(i.OS_MutexClr) for OS_MutexClr
    os_mutex.o(i.OSMutexDel) refers to bsp.o(i.CPU_TS_TmrRd) for CPU_TS_TmrRd
    os_mutex.o(i.OSMutexDel) refers to os_core.o(i.OS_PendObjDel) for OS_PendObjDel
    os_mutex.o(i.OSMutexDel) refers to os_mutex.o(i.OS_MutexGrpPrioFindHighest) for OS_MutexGrpPrioFindHighest
    os_mutex.o(i.OSMutexDel) refers to os_task.o(i.OS_TaskChangePrio) for OS_TaskChangePrio
    os_mutex.o(i.OSMutexDel) refers to os_core.o(i.OSSched) for OSSched
    os_mutex.o(i.OSMutexDel) refers to os_var.o(.data) for OSMutexQty
    os_mutex.o(i.OSMutexPend) refers to cpu_a.o(.text) for CPU_SR_Save
    os_mutex.o(i.OSMutexPend) refers to os_mutex.o(i.OS_MutexGrpAdd) for OS_MutexGrpAdd
    os_mutex.o(i.OSMutexPend) refers to os_task.o(i.OS_TaskChangePrio) for OS_TaskChangePrio
    os_mutex.o(i.OSMutexPend) refers to os_core.o(i.OS_Pend) for OS_Pend
    os_mutex.o(i.OSMutexPend) refers to os_core.o(i.OSSched) for OSSched
    os_mutex.o(i.OSMutexPend) refers to os_var.o(.data) for OSTCBCurPtr
    os_mutex.o(i.OSMutexPendAbort) refers to cpu_a.o(.text) for CPU_SR_Save
    os_mutex.o(i.OSMutexPendAbort) refers to bsp.o(i.CPU_TS_TmrRd) for CPU_TS_TmrRd
    os_mutex.o(i.OSMutexPendAbort) refers to os_core.o(i.OS_PendAbort) for OS_PendAbort
    os_mutex.o(i.OSMutexPendAbort) refers to os_mutex.o(i.OS_MutexGrpPrioFindHighest) for OS_MutexGrpPrioFindHighest
    os_mutex.o(i.OSMutexPendAbort) refers to os_task.o(i.OS_TaskChangePrio) for OS_TaskChangePrio
    os_mutex.o(i.OSMutexPendAbort) refers to os_core.o(i.OSSched) for OSSched
    os_mutex.o(i.OSMutexPost) refers to cpu_a.o(.text) for CPU_SR_Save
    os_mutex.o(i.OSMutexPost) refers to bsp.o(i.CPU_TS_TmrRd) for CPU_TS_TmrRd
    os_mutex.o(i.OSMutexPost) refers to os_mutex.o(i.OS_MutexGrpRemove) for OS_MutexGrpRemove
    os_mutex.o(i.OSMutexPost) refers to os_mutex.o(i.OS_MutexGrpPrioFindHighest) for OS_MutexGrpPrioFindHighest
    os_mutex.o(i.OSMutexPost) refers to os_core.o(i.OS_RdyListRemove) for OS_RdyListRemove
    os_mutex.o(i.OSMutexPost) refers to os_prio.o(i.OS_PrioInsert) for OS_PrioInsert
    os_mutex.o(i.OSMutexPost) refers to os_core.o(i.OS_RdyListInsertTail) for OS_RdyListInsertTail
    os_mutex.o(i.OSMutexPost) refers to os_mutex.o(i.OS_MutexGrpAdd) for OS_MutexGrpAdd
    os_mutex.o(i.OSMutexPost) refers to os_core.o(i.OS_Post) for OS_Post
    os_mutex.o(i.OSMutexPost) refers to os_core.o(i.OSSched) for OSSched
    os_mutex.o(i.OSMutexPost) refers to os_var.o(.data) for OSTCBCurPtr
    os_mutex.o(i.OS_MutexClr) refers to os_core.o(i.OS_PendListInit) for OS_PendListInit
    os_mutex.o(i.OS_MutexDbgListAdd) refers to os_var.o(.data) for OSMutexDbgListPtr
    os_mutex.o(i.OS_MutexDbgListRemove) refers to os_var.o(.data) for OSMutexDbgListPtr
    os_mutex.o(i.OS_MutexGrpPostAll) refers to bsp.o(i.CPU_TS_TmrRd) for CPU_TS_TmrRd
    os_mutex.o(i.OS_MutexGrpPostAll) refers to os_mutex.o(i.OS_MutexGrpRemove) for OS_MutexGrpRemove
    os_mutex.o(i.OS_MutexGrpPostAll) refers to os_mutex.o(i.OS_MutexGrpAdd) for OS_MutexGrpAdd
    os_mutex.o(i.OS_MutexGrpPostAll) refers to os_core.o(i.OS_Post) for OS_Post
    os_mutex.o(i.OS_MutexInit) refers to os_var.o(.data) for OSMutexDbgListPtr
    os_prio.o(i.OS_PrioGetHighest) refers to cpu_a.o(.text) for CPU_CntLeadZeros
    os_prio.o(i.OS_PrioGetHighest) refers to os_prio.o(.data) for OSPrioTbl
    os_prio.o(i.OS_PrioInit) refers to os_prio.o(.data) for OSPrioTbl
    os_prio.o(i.OS_PrioInsert) refers to os_prio.o(.data) for OSPrioTbl
    os_prio.o(i.OS_PrioRemove) refers to os_prio.o(.data) for OSPrioTbl
    os_q.o(i.OSQCreate) refers to cpu_a.o(.text) for CPU_SR_Save
    os_q.o(i.OSQCreate) refers to os_msg.o(i.OS_MsgQInit) for OS_MsgQInit
    os_q.o(i.OSQCreate) refers to os_core.o(i.OS_PendListInit) for OS_PendListInit
    os_q.o(i.OSQCreate) refers to os_q.o(i.OS_QDbgListAdd) for OS_QDbgListAdd
    os_q.o(i.OSQCreate) refers to os_var.o(.data) for OSQQty
    os_q.o(i.OSQDel) refers to cpu_a.o(.text) for CPU_SR_Save
    os_q.o(i.OSQDel) refers to os_q.o(i.OS_QDbgListRemove) for OS_QDbgListRemove
    os_q.o(i.OSQDel) refers to os_q.o(i.OS_QClr) for OS_QClr
    os_q.o(i.OSQDel) refers to bsp.o(i.CPU_TS_TmrRd) for CPU_TS_TmrRd
    os_q.o(i.OSQDel) refers to os_core.o(i.OS_PendObjDel) for OS_PendObjDel
    os_q.o(i.OSQDel) refers to os_core.o(i.OSSched) for OSSched
    os_q.o(i.OSQDel) refers to os_var.o(.data) for OSQQty
    os_q.o(i.OSQFlush) refers to cpu_a.o(.text) for CPU_SR_Save
    os_q.o(i.OSQFlush) refers to os_msg.o(i.OS_MsgQFreeAll) for OS_MsgQFreeAll
    os_q.o(i.OSQPend) refers to cpu_a.o(.text) for CPU_SR_Save
    os_q.o(i.OSQPend) refers to os_msg.o(i.OS_MsgQGet) for OS_MsgQGet
    os_q.o(i.OSQPend) refers to os_core.o(i.OS_Pend) for OS_Pend
    os_q.o(i.OSQPend) refers to os_core.o(i.OSSched) for OSSched
    os_q.o(i.OSQPend) refers to os_var.o(.data) for OSSchedLockNestingCtr
    os_q.o(i.OSQPendAbort) refers to cpu_a.o(.text) for CPU_SR_Save
    os_q.o(i.OSQPendAbort) refers to bsp.o(i.CPU_TS_TmrRd) for CPU_TS_TmrRd
    os_q.o(i.OSQPendAbort) refers to os_core.o(i.OS_PendAbort) for OS_PendAbort
    os_q.o(i.OSQPendAbort) refers to os_core.o(i.OSSched) for OSSched
    os_q.o(i.OSQPost) refers to bsp.o(i.CPU_TS_TmrRd) for CPU_TS_TmrRd
    os_q.o(i.OSQPost) refers to os_q.o(i.OS_QPost) for OS_QPost
    os_q.o(i.OS_QClr) refers to os_msg.o(i.OS_MsgQFreeAll) for OS_MsgQFreeAll
    os_q.o(i.OS_QClr) refers to os_msg.o(i.OS_MsgQInit) for OS_MsgQInit
    os_q.o(i.OS_QClr) refers to os_core.o(i.OS_PendListInit) for OS_PendListInit
    os_q.o(i.OS_QDbgListAdd) refers to os_var.o(.data) for OSQDbgListPtr
    os_q.o(i.OS_QDbgListRemove) refers to os_var.o(.data) for OSQDbgListPtr
    os_q.o(i.OS_QInit) refers to os_var.o(.data) for OSQDbgListPtr
    os_q.o(i.OS_QPost) refers to cpu_a.o(.text) for CPU_SR_Save
    os_q.o(i.OS_QPost) refers to os_msg.o(i.OS_MsgQPut) for OS_MsgQPut
    os_q.o(i.OS_QPost) refers to os_core.o(i.OS_Post) for OS_Post
    os_q.o(i.OS_QPost) refers to os_core.o(i.OSSched) for OSSched
    os_sem.o(i.OSSemCreate) refers to cpu_a.o(.text) for CPU_SR_Save
    os_sem.o(i.OSSemCreate) refers to os_core.o(i.OS_PendListInit) for OS_PendListInit
    os_sem.o(i.OSSemCreate) refers to os_sem.o(i.OS_SemDbgListAdd) for OS_SemDbgListAdd
    os_sem.o(i.OSSemCreate) refers to os_var.o(.data) for OSSemQty
    os_sem.o(i.OSSemDel) refers to cpu_a.o(.text) for CPU_SR_Save
    os_sem.o(i.OSSemDel) refers to os_sem.o(i.OS_SemDbgListRemove) for OS_SemDbgListRemove
    os_sem.o(i.OSSemDel) refers to os_sem.o(i.OS_SemClr) for OS_SemClr
    os_sem.o(i.OSSemDel) refers to bsp.o(i.CPU_TS_TmrRd) for CPU_TS_TmrRd
    os_sem.o(i.OSSemDel) refers to os_core.o(i.OS_PendObjDel) for OS_PendObjDel
    os_sem.o(i.OSSemDel) refers to os_core.o(i.OSSched) for OSSched
    os_sem.o(i.OSSemDel) refers to os_var.o(.data) for OSSemQty
    os_sem.o(i.OSSemPend) refers to cpu_a.o(.text) for CPU_SR_Save
    os_sem.o(i.OSSemPend) refers to os_core.o(i.OS_Pend) for OS_Pend
    os_sem.o(i.OSSemPend) refers to os_core.o(i.OSSched) for OSSched
    os_sem.o(i.OSSemPend) refers to os_var.o(.data) for OSSchedLockNestingCtr
    os_sem.o(i.OSSemPendAbort) refers to cpu_a.o(.text) for CPU_SR_Save
    os_sem.o(i.OSSemPendAbort) refers to bsp.o(i.CPU_TS_TmrRd) for CPU_TS_TmrRd
    os_sem.o(i.OSSemPendAbort) refers to os_core.o(i.OS_PendAbort) for OS_PendAbort
    os_sem.o(i.OSSemPendAbort) refers to os_core.o(i.OSSched) for OSSched
    os_sem.o(i.OSSemPost) refers to bsp.o(i.CPU_TS_TmrRd) for CPU_TS_TmrRd
    os_sem.o(i.OSSemPost) refers to os_sem.o(i.OS_SemPost) for OS_SemPost
    os_sem.o(i.OSSemSet) refers to cpu_a.o(.text) for CPU_SR_Save
    os_sem.o(i.OS_SemClr) refers to os_core.o(i.OS_PendListInit) for OS_PendListInit
    os_sem.o(i.OS_SemDbgListAdd) refers to os_var.o(.data) for OSSemDbgListPtr
    os_sem.o(i.OS_SemDbgListRemove) refers to os_var.o(.data) for OSSemDbgListPtr
    os_sem.o(i.OS_SemInit) refers to os_var.o(.data) for OSSemDbgListPtr
    os_sem.o(i.OS_SemPost) refers to cpu_a.o(.text) for CPU_SR_Save
    os_sem.o(i.OS_SemPost) refers to os_core.o(i.OS_Post) for OS_Post
    os_sem.o(i.OS_SemPost) refers to os_core.o(i.OSSched) for OSSched
    os_stat.o(i.OSStatReset) refers to cpu_a.o(.text) for CPU_SR_Save
    os_stat.o(i.OSStatReset) refers to bsp.o(i.CPU_TS_TmrRd) for CPU_TS_TmrRd
    os_stat.o(i.OSStatReset) refers to os_tick.o(i.OS_TickListResetPeak) for OS_TickListResetPeak
    os_stat.o(i.OSStatReset) refers to os_tmr.o(i.OS_TmrResetPeak) for OS_TmrResetPeak
    os_stat.o(i.OSStatReset) refers to os_var.o(.data) for OSStatTaskCPUUsageMax
    os_stat.o(i.OSStatReset) refers to os_var.o(.bss) for OSMsgPool
    os_stat.o(i.OSStatTaskCPUUsageInit) refers to os_task.o(i.OSTaskSuspend) for OSTaskSuspend
    os_stat.o(i.OSStatTaskCPUUsageInit) refers to os_time.o(i.OSTimeDly) for OSTimeDly
    os_stat.o(i.OSStatTaskCPUUsageInit) refers to cpu_a.o(.text) for CPU_SR_Save
    os_stat.o(i.OSStatTaskCPUUsageInit) refers to os_task.o(i.OSTaskResume) for OSTaskResume
    os_stat.o(i.OSStatTaskCPUUsageInit) refers to os_var.o(.bss) for OSTmrTaskTCB
    os_stat.o(i.OSStatTaskCPUUsageInit) refers to os_var.o(.data) for OSStatTaskCtr
    os_stat.o(i.OSStatTaskCPUUsageInit) refers to os_cfg_app.o(.constdata) for OSCfg_TickRate_Hz
    os_stat.o(i.OS_StatTask) refers to os_time.o(i.OSTimeDly) for OSTimeDly
    os_stat.o(i.OS_StatTask) refers to os_stat.o(i.OSStatReset) for OSStatReset
    os_stat.o(i.OS_StatTask) refers to bsp.o(i.CPU_TS_TmrRd) for CPU_TS_TmrRd
    os_stat.o(i.OS_StatTask) refers to cpu_a.o(.text) for CPU_SR_Save
    os_stat.o(i.OS_StatTask) refers to os_cpu_c.o(i.OSStatTaskHook) for OSStatTaskHook
    os_stat.o(i.OS_StatTask) refers to os_task.o(i.OSTaskStkChk) for OSTaskStkChk
    os_stat.o(i.OS_StatTask) refers to os_cfg_app.o(.constdata) for OSCfg_StatTaskRate_Hz
    os_stat.o(i.OS_StatTask) refers to os_var.o(.data) for OSStatTaskRdy
    os_stat.o(i.OS_StatTaskInit) refers to os_task.o(i.OSTaskCreate) for OSTaskCreate
    os_stat.o(i.OS_StatTaskInit) refers to os_var.o(.data) for OSStatTaskCtr
    os_stat.o(i.OS_StatTaskInit) refers to os_cfg_app.o(.constdata) for OSCfg_StatTaskStkBasePtr
    os_stat.o(i.OS_StatTaskInit) refers to os_stat.o(i.OS_StatTask) for OS_StatTask
    os_stat.o(i.OS_StatTaskInit) refers to os_var.o(.bss) for OSStatTaskTCB
    os_task.o(i.OSTaskChangePrio) refers to cpu_a.o(.text) for CPU_SR_Save
    os_task.o(i.OSTaskChangePrio) refers to os_mutex.o(i.OS_MutexGrpPrioFindHighest) for OS_MutexGrpPrioFindHighest
    os_task.o(i.OSTaskChangePrio) refers to os_task.o(i.OS_TaskChangePrio) for OS_TaskChangePrio
    os_task.o(i.OSTaskChangePrio) refers to os_core.o(i.OSSched) for OSSched
    os_task.o(i.OSTaskChangePrio) refers to os_var.o(.data) for OSTCBCurPtr
    os_task.o(i.OSTaskCreate) refers to os_task.o(i.OS_TaskInitTCB) for OS_TaskInitTCB
    os_task.o(i.OSTaskCreate) refers to os_cpu_c.o(i.OSTaskStkInit) for OSTaskStkInit
    os_task.o(i.OSTaskCreate) refers to os_msg.o(i.OS_MsgQInit) for OS_MsgQInit
    os_task.o(i.OSTaskCreate) refers to os_cpu_c.o(i.OSTaskCreateHook) for OSTaskCreateHook
    os_task.o(i.OSTaskCreate) refers to cpu_a.o(.text) for CPU_SR_Save
    os_task.o(i.OSTaskCreate) refers to os_prio.o(i.OS_PrioInsert) for OS_PrioInsert
    os_task.o(i.OSTaskCreate) refers to os_core.o(i.OS_RdyListInsertTail) for OS_RdyListInsertTail
    os_task.o(i.OSTaskCreate) refers to os_task.o(i.OS_TaskDbgListAdd) for OS_TaskDbgListAdd
    os_task.o(i.OSTaskCreate) refers to os_core.o(i.OSSched) for OSSched
    os_task.o(i.OSTaskCreate) refers to os_cfg_app.o(.constdata) for OSCfg_StkSizeMin
    os_task.o(i.OSTaskCreate) refers to os_var.o(.bss) for OSIdleTaskTCB
    os_task.o(i.OSTaskCreate) refers to os_var.o(.data) for OSTaskQty
    os_task.o(i.OSTaskDel) refers to cpu_a.o(.text) for CPU_SR_Save
    os_task.o(i.OSTaskDel) refers to os_core.o(i.OS_RdyListRemove) for OS_RdyListRemove
    os_task.o(i.OSTaskDel) refers to os_tick.o(i.OS_TickListRemove) for OS_TickListRemove
    os_task.o(i.OSTaskDel) refers to os_core.o(i.OS_PendListRemove) for OS_PendListRemove
    os_task.o(i.OSTaskDel) refers to os_mutex.o(i.OS_MutexGrpPrioFindHighest) for OS_MutexGrpPrioFindHighest
    os_task.o(i.OSTaskDel) refers to os_task.o(i.OS_TaskChangePrio) for OS_TaskChangePrio
    os_task.o(i.OSTaskDel) refers to os_mutex.o(i.OS_MutexGrpPostAll) for OS_MutexGrpPostAll
    os_task.o(i.OSTaskDel) refers to os_msg.o(i.OS_MsgQFreeAll) for OS_MsgQFreeAll
    os_task.o(i.OSTaskDel) refers to os_cpu_c.o(i.OSTaskDelHook) for OSTaskDelHook
    os_task.o(i.OSTaskDel) refers to os_task.o(i.OS_TaskDbgListRemove) for OS_TaskDbgListRemove
    os_task.o(i.OSTaskDel) refers to os_task.o(i.OS_TaskInitTCB) for OS_TaskInitTCB
    os_task.o(i.OSTaskDel) refers to os_core.o(i.OSSched) for OSSched
    os_task.o(i.OSTaskDel) refers to os_var.o(.bss) for OSIdleTaskTCB
    os_task.o(i.OSTaskDel) refers to os_var.o(.data) for OSTCBCurPtr
    os_task.o(i.OSTaskQFlush) refers to cpu_a.o(.text) for CPU_SR_Save
    os_task.o(i.OSTaskQFlush) refers to os_msg.o(i.OS_MsgQFreeAll) for OS_MsgQFreeAll
    os_task.o(i.OSTaskQFlush) refers to os_var.o(.data) for OSTCBCurPtr
    os_task.o(i.OSTaskQPend) refers to cpu_a.o(.text) for CPU_SR_Save
    os_task.o(i.OSTaskQPend) refers to os_msg.o(i.OS_MsgQGet) for OS_MsgQGet
    os_task.o(i.OSTaskQPend) refers to bsp.o(i.CPU_TS_TmrRd) for CPU_TS_TmrRd
    os_task.o(i.OSTaskQPend) refers to os_core.o(i.OS_Pend) for OS_Pend
    os_task.o(i.OSTaskQPend) refers to os_core.o(i.OSSched) for OSSched
    os_task.o(i.OSTaskQPend) refers to os_var.o(.data) for OSTCBCurPtr
    os_task.o(i.OSTaskQPendAbort) refers to cpu_a.o(.text) for CPU_SR_Save
    os_task.o(i.OSTaskQPendAbort) refers to bsp.o(i.CPU_TS_TmrRd) for CPU_TS_TmrRd
    os_task.o(i.OSTaskQPendAbort) refers to os_core.o(i.OS_PendAbort) for OS_PendAbort
    os_task.o(i.OSTaskQPendAbort) refers to os_core.o(i.OSSched) for OSSched
    os_task.o(i.OSTaskQPendAbort) refers to os_var.o(.data) for OSTCBCurPtr
    os_task.o(i.OSTaskQPost) refers to bsp.o(i.CPU_TS_TmrRd) for CPU_TS_TmrRd
    os_task.o(i.OSTaskQPost) refers to os_task.o(i.OS_TaskQPost) for OS_TaskQPost
    os_task.o(i.OSTaskRegGet) refers to cpu_a.o(.text) for CPU_SR_Save
    os_task.o(i.OSTaskRegGet) refers to os_var.o(.data) for OSTCBCurPtr
    os_task.o(i.OSTaskRegGetID) refers to cpu_a.o(.text) for CPU_SR_Save
    os_task.o(i.OSTaskRegGetID) refers to os_var.o(.data) for OSTaskRegNextAvailID
    os_task.o(i.OSTaskRegSet) refers to cpu_a.o(.text) for CPU_SR_Save
    os_task.o(i.OSTaskRegSet) refers to os_var.o(.data) for OSTCBCurPtr
    os_task.o(i.OSTaskResume) refers to cpu_a.o(.text) for CPU_SR_Save
    os_task.o(i.OSTaskResume) refers to os_task.o(i.OS_TaskResume) for OS_TaskResume
    os_task.o(i.OSTaskResume) refers to os_var.o(.data) for OSTCBCurPtr
    os_task.o(i.OSTaskSemPend) refers to cpu_a.o(.text) for CPU_SR_Save
    os_task.o(i.OSTaskSemPend) refers to bsp.o(i.CPU_TS_TmrRd) for CPU_TS_TmrRd
    os_task.o(i.OSTaskSemPend) refers to os_core.o(i.OS_Pend) for OS_Pend
    os_task.o(i.OSTaskSemPend) refers to os_core.o(i.OSSched) for OSSched
    os_task.o(i.OSTaskSemPend) refers to os_var.o(.data) for OSTCBCurPtr
    os_task.o(i.OSTaskSemPendAbort) refers to cpu_a.o(.text) for CPU_SR_Save
    os_task.o(i.OSTaskSemPendAbort) refers to bsp.o(i.CPU_TS_TmrRd) for CPU_TS_TmrRd
    os_task.o(i.OSTaskSemPendAbort) refers to os_core.o(i.OS_PendAbort) for OS_PendAbort
    os_task.o(i.OSTaskSemPendAbort) refers to os_core.o(i.OSSched) for OSSched
    os_task.o(i.OSTaskSemPendAbort) refers to os_var.o(.data) for OSTCBCurPtr
    os_task.o(i.OSTaskSemPost) refers to bsp.o(i.CPU_TS_TmrRd) for CPU_TS_TmrRd
    os_task.o(i.OSTaskSemPost) refers to os_task.o(i.OS_TaskSemPost) for OS_TaskSemPost
    os_task.o(i.OSTaskSemSet) refers to cpu_a.o(.text) for CPU_SR_Save
    os_task.o(i.OSTaskSemSet) refers to os_var.o(.data) for OSTCBCurPtr
    os_task.o(i.OSTaskStkChk) refers to cpu_a.o(.text) for CPU_SR_Save
    os_task.o(i.OSTaskStkChk) refers to os_var.o(.data) for OSTCBCurPtr
    os_task.o(i.OSTaskSuspend) refers to os_task.o(i.OS_TaskSuspend) for OS_TaskSuspend
    os_task.o(i.OSTaskSuspend) refers to os_var.o(.bss) for OSIdleTaskTCB
    os_task.o(i.OS_TaskChangePrio) refers to os_core.o(i.OS_RdyListRemove) for OS_RdyListRemove
    os_task.o(i.OS_TaskChangePrio) refers to os_prio.o(i.OS_PrioInsert) for OS_PrioInsert
    os_task.o(i.OS_TaskChangePrio) refers to os_core.o(i.OS_RdyListInsertHead) for OS_RdyListInsertHead
    os_task.o(i.OS_TaskChangePrio) refers to os_core.o(i.OS_RdyListInsertTail) for OS_RdyListInsertTail
    os_task.o(i.OS_TaskChangePrio) refers to os_core.o(i.OS_PendListChangePrio) for OS_PendListChangePrio
    os_task.o(i.OS_TaskChangePrio) refers to os_mutex.o(i.OS_MutexGrpPrioFindHighest) for OS_MutexGrpPrioFindHighest
    os_task.o(i.OS_TaskChangePrio) refers to os_var.o(.data) for OSTCBCurPtr
    os_task.o(i.OS_TaskDbgListAdd) refers to os_var.o(.data) for OSTaskDbgListPtr
    os_task.o(i.OS_TaskDbgListRemove) refers to os_var.o(.data) for OSTaskDbgListPtr
    os_task.o(i.OS_TaskInit) refers to os_var.o(.data) for OSTaskDbgListPtr
    os_task.o(i.OS_TaskInitTCB) refers to os_msg.o(i.OS_MsgQInit) for OS_MsgQInit
    os_task.o(i.OS_TaskInitTCB) refers to bsp.o(i.CPU_TS_TmrRd) for CPU_TS_TmrRd
    os_task.o(i.OS_TaskQPost) refers to cpu_a.o(.text) for CPU_SR_Save
    os_task.o(i.OS_TaskQPost) refers to os_msg.o(i.OS_MsgQPut) for OS_MsgQPut
    os_task.o(i.OS_TaskQPost) refers to os_core.o(i.OS_Post) for OS_Post
    os_task.o(i.OS_TaskQPost) refers to os_core.o(i.OSSched) for OSSched
    os_task.o(i.OS_TaskQPost) refers to os_var.o(.data) for OSTCBCurPtr
    os_task.o(i.OS_TaskResume) refers to cpu_a.o(.text) for CPU_SR_Save
    os_task.o(i.OS_TaskResume) refers to os_core.o(i.OS_RdyListInsert) for OS_RdyListInsert
    os_task.o(i.OS_TaskResume) refers to os_core.o(i.OSSched) for OSSched
    os_task.o(i.OS_TaskReturn) refers to os_cpu_c.o(i.OSTaskReturnHook) for OSTaskReturnHook
    os_task.o(i.OS_TaskReturn) refers to os_task.o(i.OSTaskDel) for OSTaskDel
    os_task.o(i.OS_TaskReturn) refers to os_var.o(.data) for OSTCBCurPtr
    os_task.o(i.OS_TaskSemPost) refers to cpu_a.o(.text) for CPU_SR_Save
    os_task.o(i.OS_TaskSemPost) refers to os_core.o(i.OS_Post) for OS_Post
    os_task.o(i.OS_TaskSemPost) refers to os_core.o(i.OSSched) for OSSched
    os_task.o(i.OS_TaskSemPost) refers to os_var.o(.data) for OSTCBCurPtr
    os_task.o(i.OS_TaskSuspend) refers to cpu_a.o(.text) for CPU_SR_Save
    os_task.o(i.OS_TaskSuspend) refers to os_core.o(i.OS_RdyListRemove) for OS_RdyListRemove
    os_task.o(i.OS_TaskSuspend) refers to os_core.o(i.OSSched) for OSSched
    os_task.o(i.OS_TaskSuspend) refers to os_var.o(.data) for OSTCBCurPtr
    os_tick.o(i.OS_TickListInsertDly) refers to os_tick.o(i.OS_TickListInsert) for OS_TickListInsert
    os_tick.o(i.OS_TickListInsertDly) refers to os_var.o(.data) for OSTickCtr
    os_tick.o(i.OS_TickListUpdateDly) refers to cpu_a.o(.text) for CPU_SR_Save
    os_tick.o(i.OS_TickListUpdateDly) refers to bsp.o(i.CPU_TS_TmrRd) for CPU_TS_TmrRd
    os_tick.o(i.OS_TickListUpdateDly) refers to os_core.o(i.OS_RdyListInsert) for OS_RdyListInsert
    os_tick.o(i.OS_TickListUpdateDly) refers to os_var.o(.data) for OSTickListDly
    os_tick.o(i.OS_TickListUpdateTimeout) refers to cpu_a.o(.text) for CPU_SR_Save
    os_tick.o(i.OS_TickListUpdateTimeout) refers to bsp.o(i.CPU_TS_TmrRd) for CPU_TS_TmrRd
    os_tick.o(i.OS_TickListUpdateTimeout) refers to os_core.o(i.OS_PendListRemove) for OS_PendListRemove
    os_tick.o(i.OS_TickListUpdateTimeout) refers to os_core.o(i.OS_RdyListInsert) for OS_RdyListInsert
    os_tick.o(i.OS_TickListUpdateTimeout) refers to os_mutex.o(i.OS_MutexGrpPrioFindHighest) for OS_MutexGrpPrioFindHighest
    os_tick.o(i.OS_TickListUpdateTimeout) refers to os_task.o(i.OS_TaskChangePrio) for OS_TaskChangePrio
    os_tick.o(i.OS_TickListUpdateTimeout) refers to os_var.o(.data) for OSTickListTimeout
    os_tick.o(i.OS_TickTask) refers to os_task.o(i.OSTaskSemPend) for OSTaskSemPend
    os_tick.o(i.OS_TickTask) refers to cpu_a.o(.text) for CPU_SR_Save
    os_tick.o(i.OS_TickTask) refers to os_tick.o(i.OS_TickListUpdateDly) for OS_TickListUpdateDly
    os_tick.o(i.OS_TickTask) refers to os_tick.o(i.OS_TickListUpdateTimeout) for OS_TickListUpdateTimeout
    os_tick.o(i.OS_TickTask) refers to os_var.o(.data) for OSTickCtr
    os_tick.o(i.OS_TickTaskInit) refers to os_task.o(i.OSTaskCreate) for OSTaskCreate
    os_tick.o(i.OS_TickTaskInit) refers to os_var.o(.data) for OSTickCtr
    os_tick.o(i.OS_TickTaskInit) refers to os_cfg_app.o(.constdata) for OSCfg_TickTaskStkBasePtr
    os_tick.o(i.OS_TickTaskInit) refers to os_tick.o(i.OS_TickTask) for OS_TickTask
    os_tick.o(i.OS_TickTaskInit) refers to os_var.o(.bss) for OSTickTaskTCB
    os_time.o(i.OSTimeDly) refers to cpu_a.o(.text) for CPU_SR_Save
    os_time.o(i.OSTimeDly) refers to os_tick.o(i.OS_TickListInsertDly) for OS_TickListInsertDly
    os_time.o(i.OSTimeDly) refers to os_core.o(i.OS_RdyListRemove) for OS_RdyListRemove
    os_time.o(i.OSTimeDly) refers to os_core.o(i.OSSched) for OSSched
    os_time.o(i.OSTimeDly) refers to os_var.o(.data) for OSSchedLockNestingCtr
    os_time.o(i.OSTimeDlyHMSM) refers to cpu_a.o(.text) for CPU_SR_Save
    os_time.o(i.OSTimeDlyHMSM) refers to os_tick.o(i.OS_TickListInsertDly) for OS_TickListInsertDly
    os_time.o(i.OSTimeDlyHMSM) refers to os_core.o(i.OS_RdyListRemove) for OS_RdyListRemove
    os_time.o(i.OSTimeDlyHMSM) refers to os_core.o(i.OSSched) for OSSched
    os_time.o(i.OSTimeDlyHMSM) refers to os_var.o(.data) for OSSchedLockNestingCtr
    os_time.o(i.OSTimeDlyHMSM) refers to os_cfg_app.o(.constdata) for OSCfg_TickRate_Hz
    os_time.o(i.OSTimeDlyResume) refers to cpu_a.o(.text) for CPU_SR_Save
    os_time.o(i.OSTimeDlyResume) refers to os_tick.o(i.OS_TickListRemove) for OS_TickListRemove
    os_time.o(i.OSTimeDlyResume) refers to os_core.o(i.OS_RdyListInsert) for OS_RdyListInsert
    os_time.o(i.OSTimeDlyResume) refers to os_core.o(i.OSSched) for OSSched
    os_time.o(i.OSTimeDlyResume) refers to os_var.o(.data) for OSTCBCurPtr
    os_time.o(i.OSTimeGet) refers to cpu_a.o(.text) for CPU_SR_Save
    os_time.o(i.OSTimeGet) refers to os_var.o(.data) for OSTickCtr
    os_time.o(i.OSTimeSet) refers to cpu_a.o(.text) for CPU_SR_Save
    os_time.o(i.OSTimeSet) refers to os_var.o(.data) for OSTickCtr
    os_time.o(i.OSTimeTick) refers to os_cpu_c.o(i.OSTimeTickHook) for OSTimeTickHook
    os_time.o(i.OSTimeTick) refers to os_task.o(i.OSTaskSemPost) for OSTaskSemPost
    os_time.o(i.OSTimeTick) refers to os_var.o(.bss) for OSTickTaskTCB
    os_time.o(i.OSTimeTick) refers to os_var.o(.data) for OSTmrUpdateCtr
    os_tmr.o(i.OSTmrCreate) refers to os_tmr.o(i.OS_TmrLock) for OS_TmrLock
    os_tmr.o(i.OSTmrCreate) refers to os_tmr.o(i.OS_TmrDbgListAdd) for OS_TmrDbgListAdd
    os_tmr.o(i.OSTmrCreate) refers to os_tmr.o(i.OS_TmrUnlock) for OS_TmrUnlock
    os_tmr.o(i.OSTmrCreate) refers to os_var.o(.data) for OSTmrQty
    os_tmr.o(i.OSTmrDel) refers to os_tmr.o(i.OS_TmrLock) for OS_TmrLock
    os_tmr.o(i.OSTmrDel) refers to os_tmr.o(i.OS_TmrDbgListRemove) for OS_TmrDbgListRemove
    os_tmr.o(i.OSTmrDel) refers to os_tmr.o(i.OS_TmrUnlink) for OS_TmrUnlink
    os_tmr.o(i.OSTmrDel) refers to os_tmr.o(i.OS_TmrClr) for OS_TmrClr
    os_tmr.o(i.OSTmrDel) refers to os_tmr.o(i.OS_TmrUnlock) for OS_TmrUnlock
    os_tmr.o(i.OSTmrDel) refers to os_var.o(.data) for OSTmrQty
    os_tmr.o(i.OSTmrRemainGet) refers to os_core.o(i.OSSchedLock) for OSSchedLock
    os_tmr.o(i.OSTmrRemainGet) refers to os_core.o(i.OSSchedUnlock) for OSSchedUnlock
    os_tmr.o(i.OSTmrStart) refers to cpu_a.o(.text) for CPU_SR_Save
    os_tmr.o(i.OSTmrStart) refers to os_tmr.o(i.OS_TmrLock) for OS_TmrLock
    os_tmr.o(i.OSTmrStart) refers to os_tmr.o(i.OS_TmrUnlock) for OS_TmrUnlock
    os_tmr.o(i.OSTmrStart) refers to os_var.o(.data) for OSTmrListPtr
    os_tmr.o(i.OSTmrStop) refers to os_tmr.o(i.OS_TmrLock) for OS_TmrLock
    os_tmr.o(i.OSTmrStop) refers to os_tmr.o(i.OS_TmrUnlink) for OS_TmrUnlink
    os_tmr.o(i.OSTmrStop) refers to os_tmr.o(i.OS_TmrUnlock) for OS_TmrUnlock
    os_tmr.o(i.OS_TmrDbgListAdd) refers to os_var.o(.data) for OSTmrDbgListPtr
    os_tmr.o(i.OS_TmrDbgListRemove) refers to os_var.o(.data) for OSTmrDbgListPtr
    os_tmr.o(i.OS_TmrInit) refers to os_mutex.o(i.OSMutexCreate) for OSMutexCreate
    os_tmr.o(i.OS_TmrInit) refers to os_task.o(i.OSTaskCreate) for OSTaskCreate
    os_tmr.o(i.OS_TmrInit) refers to os_var.o(.data) for OSTmrDbgListPtr
    os_tmr.o(i.OS_TmrInit) refers to os_cfg_app.o(.constdata) for OSCfg_TmrTaskRate_Hz
    os_tmr.o(i.OS_TmrInit) refers to os_var.o(.bss) for OSTmrMutex
    os_tmr.o(i.OS_TmrInit) refers to os_tmr.o(i.OS_TmrTask) for OS_TmrTask
    os_tmr.o(i.OS_TmrLock) refers to os_mutex.o(i.OSMutexPend) for OSMutexPend
    os_tmr.o(i.OS_TmrLock) refers to os_var.o(.bss) for OSTmrMutex
    os_tmr.o(i.OS_TmrTask) refers to os_task.o(i.OSTaskSemPend) for OSTaskSemPend
    os_tmr.o(i.OS_TmrTask) refers to os_tmr.o(i.OS_TmrLock) for OS_TmrLock
    os_tmr.o(i.OS_TmrTask) refers to bsp.o(i.CPU_TS_TmrRd) for CPU_TS_TmrRd
    os_tmr.o(i.OS_TmrTask) refers to os_core.o(i.OSSchedLock) for OSSchedLock
    os_tmr.o(i.OS_TmrTask) refers to os_tmr.o(i.OS_TmrUnlink) for OS_TmrUnlink
    os_tmr.o(i.OS_TmrTask) refers to os_core.o(i.OSSchedUnlock) for OSSchedUnlock
    os_tmr.o(i.OS_TmrTask) refers to os_tmr.o(i.OS_TmrUnlock) for OS_TmrUnlock
    os_tmr.o(i.OS_TmrTask) refers to os_var.o(.data) for OSTmrTickCtr
    os_tmr.o(i.OS_TmrUnlink) refers to os_var.o(.data) for OSTmrListPtr
    os_tmr.o(i.OS_TmrUnlock) refers to os_mutex.o(i.OSMutexPost) for OSMutexPost
    os_tmr.o(i.OS_TmrUnlock) refers to os_var.o(.bss) for OSTmrMutex
    os_cpu_a.o(CODE) refers to os_cpu_c.o(.data) for OS_CPU_ExceptStkBase
    os_cpu_a.o(CODE) refers to os_var.o(.data) for OSPrioCur
    os_cpu_a.o(CODE) refers to os_cpu_c.o(i.OSTaskSwHook) for OSTaskSwHook
    os_cpu_c.o(i.OSIdleTaskHook) refers to os_var.o(.data) for OS_AppIdleTaskHookPtr
    os_cpu_c.o(i.OSInitHook) refers to os_cfg_app.o(.constdata) for OSCfg_ISRStkBasePtr
    os_cpu_c.o(i.OSInitHook) refers to os_cpu_c.o(.data) for OS_CPU_ExceptStkBase
    os_cpu_c.o(i.OSStatTaskHook) refers to os_var.o(.data) for OS_AppStatTaskHookPtr
    os_cpu_c.o(i.OSTaskCreateHook) refers to os_var.o(.data) for OS_AppTaskCreateHookPtr
    os_cpu_c.o(i.OSTaskDelHook) refers to os_var.o(.data) for OS_AppTaskDelHookPtr
    os_cpu_c.o(i.OSTaskReturnHook) refers to os_var.o(.data) for OS_AppTaskReturnHookPtr
    os_cpu_c.o(i.OSTaskStkInit) refers to os_task.o(i.OS_TaskReturn) for OS_TaskReturn
    os_cpu_c.o(i.OSTaskSwHook) refers to os_cpu_a.o(CODE) for OS_CPU_FP_Reg_Push
    os_cpu_c.o(i.OSTaskSwHook) refers to bsp.o(i.CPU_TS_TmrRd) for CPU_TS_TmrRd
    os_cpu_c.o(i.OSTaskSwHook) refers to os_var.o(.data) for OSTCBCurPtr
    os_cpu_c.o(i.OSTimeTickHook) refers to os_var.o(.data) for OS_AppTimeTickHookPtr
    os_cpu_c.o(i.OS_CPU_SysTickHandler) refers to cpu_a.o(.text) for CPU_SR_Save
    os_cpu_c.o(i.OS_CPU_SysTickHandler) refers to os_time.o(i.OSTimeTick) for OSTimeTick
    os_cpu_c.o(i.OS_CPU_SysTickHandler) refers to os_core.o(i.OSIntExit) for OSIntExit
    os_cpu_c.o(i.OS_CPU_SysTickHandler) refers to os_var.o(.data) for OSIntNestingCtr
    os_app_hooks.o(i.App_OS_ClrAllHooks) refers to cpu_a.o(.text) for CPU_SR_Save
    os_app_hooks.o(i.App_OS_ClrAllHooks) refers to os_var.o(.data) for OS_AppTaskCreateHookPtr
    os_app_hooks.o(i.App_OS_SetAllHooks) refers to cpu_a.o(.text) for CPU_SR_Save
    os_app_hooks.o(i.App_OS_SetAllHooks) refers to os_app_hooks.o(i.App_OS_TaskCreateHook) for App_OS_TaskCreateHook
    os_app_hooks.o(i.App_OS_SetAllHooks) refers to os_var.o(.data) for OS_AppTaskCreateHookPtr
    os_app_hooks.o(i.App_OS_SetAllHooks) refers to os_app_hooks.o(i.App_OS_TaskDelHook) for App_OS_TaskDelHook
    os_app_hooks.o(i.App_OS_SetAllHooks) refers to os_app_hooks.o(i.App_OS_TaskReturnHook) for App_OS_TaskReturnHook
    os_app_hooks.o(i.App_OS_SetAllHooks) refers to os_app_hooks.o(i.App_OS_IdleTaskHook) for App_OS_IdleTaskHook
    os_app_hooks.o(i.App_OS_SetAllHooks) refers to os_app_hooks.o(i.App_OS_StatTaskHook) for App_OS_StatTaskHook
    os_app_hooks.o(i.App_OS_SetAllHooks) refers to os_app_hooks.o(i.App_OS_TaskSwHook) for App_OS_TaskSwHook
    os_app_hooks.o(i.App_OS_SetAllHooks) refers to os_app_hooks.o(i.App_OS_TimeTickHook) for App_OS_TimeTickHook
    entry.o(.ARM.Collect$$$$00000000) refers (Special) to entry10a.o(.ARM.Collect$$$$0000000D) for __rt_final_cpp
    entry.o(.ARM.Collect$$$$00000000) refers (Special) to entry11a.o(.ARM.Collect$$$$0000000F) for __rt_final_exit
    entry.o(.ARM.Collect$$$$00000000) refers (Special) to entry7b.o(.ARM.Collect$$$$00000008) for _main_clock
    entry.o(.ARM.Collect$$$$00000000) refers (Special) to entry8b.o(.ARM.Collect$$$$0000000A) for _main_cpp_init
    entry.o(.ARM.Collect$$$$00000000) refers (Special) to entry9a.o(.ARM.Collect$$$$0000000B) for _main_init
    entry.o(.ARM.Collect$$$$00000000) refers (Special) to entry5.o(.ARM.Collect$$$$00000004) for _main_scatterload
    entry.o(.ARM.Collect$$$$00000000) refers (Special) to entry2.o(.ARM.Collect$$$$00000001) for _main_stk
    uldiv.o(.text) refers to llushr.o(.text) for __aeabi_llsr
    uldiv.o(.text) refers to llshl.o(.text) for __aeabi_llsl
    printfb.o(i.__0fprintf$bare) refers to printfb.o(i._printf_core) for _printf_core
    printfb.o(i.__0fprintf$bare) refers to uart2.o(i.fputc) for fputc
    printfb.o(i.__0printf$bare) refers to printfb.o(i._printf_core) for _printf_core
    printfb.o(i.__0printf$bare) refers to uart2.o(i.fputc) for fputc
    printfb.o(i.__0printf$bare) refers to stdout.o(.data) for __stdout
    printfb.o(i.__0snprintf$bare) refers to printfb.o(i._printf_core) for _printf_core
    printfb.o(i.__0snprintf$bare) refers to printfb.o(i._snputc) for _snputc
    printfb.o(i.__0sprintf$bare) refers to printfb.o(i._printf_core) for _printf_core
    printfb.o(i.__0sprintf$bare) refers to printfb.o(i._sputc) for _sputc
    printfb.o(i.__0vfprintf$bare) refers to printfb.o(i._printf_core) for _printf_core
    printfb.o(i.__0vfprintf$bare) refers to uart2.o(i.fputc) for fputc
    printfb.o(i.__0vprintf$bare) refers to printfb.o(i._printf_core) for _printf_core
    printfb.o(i.__0vprintf$bare) refers to uart2.o(i.fputc) for fputc
    printfb.o(i.__0vprintf$bare) refers to stdout.o(.data) for __stdout
    printfb.o(i.__0vsnprintf$bare) refers to printfb.o(i._printf_core) for _printf_core
    printfb.o(i.__0vsnprintf$bare) refers to printfb.o(i._snputc) for _snputc
    printfb.o(i.__0vsprintf$bare) refers to printfb.o(i._printf_core) for _printf_core
    printfb.o(i.__0vsprintf$bare) refers to printfb.o(i._sputc) for _sputc
    printf0.o(i.__0fprintf$0) refers to printf0.o(i._printf_core) for _printf_core
    printf0.o(i.__0fprintf$0) refers to uart2.o(i.fputc) for fputc
    printf0.o(i.__0printf$0) refers to printf0.o(i._printf_core) for _printf_core
    printf0.o(i.__0printf$0) refers to uart2.o(i.fputc) for fputc
    printf0.o(i.__0printf$0) refers to stdout.o(.data) for __stdout
    printf0.o(i.__0snprintf$0) refers to printf0.o(i._printf_core) for _printf_core
    printf0.o(i.__0snprintf$0) refers to printf0.o(i._snputc) for _snputc
    printf0.o(i.__0sprintf$0) refers to printf0.o(i._printf_core) for _printf_core
    printf0.o(i.__0sprintf$0) refers to printf0.o(i._sputc) for _sputc
    printf0.o(i.__0vfprintf$0) refers to printf0.o(i._printf_core) for _printf_core
    printf0.o(i.__0vfprintf$0) refers to uart2.o(i.fputc) for fputc
    printf0.o(i.__0vprintf$0) refers to printf0.o(i._printf_core) for _printf_core
    printf0.o(i.__0vprintf$0) refers to uart2.o(i.fputc) for fputc
    printf0.o(i.__0vprintf$0) refers to stdout.o(.data) for __stdout
    printf0.o(i.__0vsnprintf$0) refers to printf0.o(i._printf_core) for _printf_core
    printf0.o(i.__0vsnprintf$0) refers to printf0.o(i._snputc) for _snputc
    printf0.o(i.__0vsprintf$0) refers to printf0.o(i._printf_core) for _printf_core
    printf0.o(i.__0vsprintf$0) refers to printf0.o(i._sputc) for _sputc
    printf1.o(i.__0fprintf$1) refers to printf1.o(i._printf_core) for _printf_core
    printf1.o(i.__0fprintf$1) refers to uart2.o(i.fputc) for fputc
    printf1.o(i.__0printf$1) refers to printf1.o(i._printf_core) for _printf_core
    printf1.o(i.__0printf$1) refers to uart2.o(i.fputc) for fputc
    printf1.o(i.__0printf$1) refers to stdout.o(.data) for __stdout
    printf1.o(i.__0snprintf$1) refers to printf1.o(i._printf_core) for _printf_core
    printf1.o(i.__0snprintf$1) refers to printf1.o(i._snputc) for _snputc
    printf1.o(i.__0sprintf$1) refers to printf1.o(i._printf_core) for _printf_core
    printf1.o(i.__0sprintf$1) refers to printf1.o(i._sputc) for _sputc
    printf1.o(i.__0vfprintf$1) refers to printf1.o(i._printf_core) for _printf_core
    printf1.o(i.__0vfprintf$1) refers to uart2.o(i.fputc) for fputc
    printf1.o(i.__0vprintf$1) refers to printf1.o(i._printf_core) for _printf_core
    printf1.o(i.__0vprintf$1) refers to uart2.o(i.fputc) for fputc
    printf1.o(i.__0vprintf$1) refers to stdout.o(.data) for __stdout
    printf1.o(i.__0vsnprintf$1) refers to printf1.o(i._printf_core) for _printf_core
    printf1.o(i.__0vsnprintf$1) refers to printf1.o(i._snputc) for _snputc
    printf1.o(i.__0vsprintf$1) refers to printf1.o(i._printf_core) for _printf_core
    printf1.o(i.__0vsprintf$1) refers to printf1.o(i._sputc) for _sputc
    printf1.o(i._printf_core) refers to uidiv.o(.text) for __aeabi_uidivmod
    printf2.o(i.__0fprintf$2) refers to printf2.o(i._printf_core) for _printf_core
    printf2.o(i.__0fprintf$2) refers to uart2.o(i.fputc) for fputc
    printf2.o(i.__0printf$2) refers to printf2.o(i._printf_core) for _printf_core
    printf2.o(i.__0printf$2) refers to uart2.o(i.fputc) for fputc
    printf2.o(i.__0printf$2) refers to stdout.o(.data) for __stdout
    printf2.o(i.__0snprintf$2) refers to printf2.o(i._printf_core) for _printf_core
    printf2.o(i.__0snprintf$2) refers to printf2.o(i._snputc) for _snputc
    printf2.o(i.__0sprintf$2) refers to printf2.o(i._printf_core) for _printf_core
    printf2.o(i.__0sprintf$2) refers to printf2.o(i._sputc) for _sputc
    printf2.o(i.__0vfprintf$2) refers to printf2.o(i._printf_core) for _printf_core
    printf2.o(i.__0vfprintf$2) refers to uart2.o(i.fputc) for fputc
    printf2.o(i.__0vprintf$2) refers to printf2.o(i._printf_core) for _printf_core
    printf2.o(i.__0vprintf$2) refers to uart2.o(i.fputc) for fputc
    printf2.o(i.__0vprintf$2) refers to stdout.o(.data) for __stdout
    printf2.o(i.__0vsnprintf$2) refers to printf2.o(i._printf_core) for _printf_core
    printf2.o(i.__0vsnprintf$2) refers to printf2.o(i._snputc) for _snputc
    printf2.o(i.__0vsprintf$2) refers to printf2.o(i._printf_core) for _printf_core
    printf2.o(i.__0vsprintf$2) refers to printf2.o(i._sputc) for _sputc
    printf3.o(i.__0fprintf$3) refers to printf3.o(i._printf_core) for _printf_core
    printf3.o(i.__0fprintf$3) refers to uart2.o(i.fputc) for fputc
    printf3.o(i.__0printf$3) refers to printf3.o(i._printf_core) for _printf_core
    printf3.o(i.__0printf$3) refers to uart2.o(i.fputc) for fputc
    printf3.o(i.__0printf$3) refers to stdout.o(.data) for __stdout
    printf3.o(i.__0snprintf$3) refers to printf3.o(i._printf_core) for _printf_core
    printf3.o(i.__0snprintf$3) refers to printf3.o(i._snputc) for _snputc
    printf3.o(i.__0sprintf$3) refers to printf3.o(i._printf_core) for _printf_core
    printf3.o(i.__0sprintf$3) refers to printf3.o(i._sputc) for _sputc
    printf3.o(i.__0vfprintf$3) refers to printf3.o(i._printf_core) for _printf_core
    printf3.o(i.__0vfprintf$3) refers to uart2.o(i.fputc) for fputc
    printf3.o(i.__0vprintf$3) refers to printf3.o(i._printf_core) for _printf_core
    printf3.o(i.__0vprintf$3) refers to uart2.o(i.fputc) for fputc
    printf3.o(i.__0vprintf$3) refers to stdout.o(.data) for __stdout
    printf3.o(i.__0vsnprintf$3) refers to printf3.o(i._printf_core) for _printf_core
    printf3.o(i.__0vsnprintf$3) refers to printf3.o(i._snputc) for _snputc
    printf3.o(i.__0vsprintf$3) refers to printf3.o(i._printf_core) for _printf_core
    printf3.o(i.__0vsprintf$3) refers to printf3.o(i._sputc) for _sputc
    printf3.o(i._printf_core) refers to uidiv.o(.text) for __aeabi_uidivmod
    printf4.o(i.__0fprintf$4) refers to printf4.o(i._printf_core) for _printf_core
    printf4.o(i.__0fprintf$4) refers to uart2.o(i.fputc) for fputc
    printf4.o(i.__0printf$4) refers to printf4.o(i._printf_core) for _printf_core
    printf4.o(i.__0printf$4) refers to uart2.o(i.fputc) for fputc
    printf4.o(i.__0printf$4) refers to stdout.o(.data) for __stdout
    printf4.o(i.__0snprintf$4) refers to printf4.o(i._printf_core) for _printf_core
    printf4.o(i.__0snprintf$4) refers to printf4.o(i._snputc) for _snputc
    printf4.o(i.__0sprintf$4) refers to printf4.o(i._printf_core) for _printf_core
    printf4.o(i.__0sprintf$4) refers to printf4.o(i._sputc) for _sputc
    printf4.o(i.__0vfprintf$4) refers to printf4.o(i._printf_core) for _printf_core
    printf4.o(i.__0vfprintf$4) refers to uart2.o(i.fputc) for fputc
    printf4.o(i.__0vprintf$4) refers to printf4.o(i._printf_core) for _printf_core
    printf4.o(i.__0vprintf$4) refers to uart2.o(i.fputc) for fputc
    printf4.o(i.__0vprintf$4) refers to stdout.o(.data) for __stdout
    printf4.o(i.__0vsnprintf$4) refers to printf4.o(i._printf_core) for _printf_core
    printf4.o(i.__0vsnprintf$4) refers to printf4.o(i._snputc) for _snputc
    printf4.o(i.__0vsprintf$4) refers to printf4.o(i._printf_core) for _printf_core
    printf4.o(i.__0vsprintf$4) refers to printf4.o(i._sputc) for _sputc
    printf4.o(i._printf_core) refers to uldiv.o(.text) for __aeabi_uldivmod
    printf5.o(i.__0fprintf$5) refers to printf5.o(i._printf_core) for _printf_core
    printf5.o(i.__0fprintf$5) refers to uart2.o(i.fputc) for fputc
    printf5.o(i.__0printf$5) refers to printf5.o(i._printf_core) for _printf_core
    printf5.o(i.__0printf$5) refers to uart2.o(i.fputc) for fputc
    printf5.o(i.__0printf$5) refers to stdout.o(.data) for __stdout
    printf5.o(i.__0snprintf$5) refers to printf5.o(i._printf_core) for _printf_core
    printf5.o(i.__0snprintf$5) refers to printf5.o(i._snputc) for _snputc
    printf5.o(i.__0sprintf$5) refers to printf5.o(i._printf_core) for _printf_core
    printf5.o(i.__0sprintf$5) refers to printf5.o(i._sputc) for _sputc
    printf5.o(i.__0vfprintf$5) refers to printf5.o(i._printf_core) for _printf_core
    printf5.o(i.__0vfprintf$5) refers to uart2.o(i.fputc) for fputc
    printf5.o(i.__0vprintf$5) refers to printf5.o(i._printf_core) for _printf_core
    printf5.o(i.__0vprintf$5) refers to uart2.o(i.fputc) for fputc
    printf5.o(i.__0vprintf$5) refers to stdout.o(.data) for __stdout
    printf5.o(i.__0vsnprintf$5) refers to printf5.o(i._printf_core) for _printf_core
    printf5.o(i.__0vsnprintf$5) refers to printf5.o(i._snputc) for _snputc
    printf5.o(i.__0vsprintf$5) refers to printf5.o(i._printf_core) for _printf_core
    printf5.o(i.__0vsprintf$5) refers to printf5.o(i._sputc) for _sputc
    printf5.o(i._printf_core) refers to uldiv.o(.text) for __aeabi_uldivmod
    printf6.o(i.__0fprintf$6) refers to printf6.o(i._printf_core) for _printf_core
    printf6.o(i.__0fprintf$6) refers to uart2.o(i.fputc) for fputc
    printf6.o(i.__0printf$6) refers to printf6.o(i._printf_core) for _printf_core
    printf6.o(i.__0printf$6) refers to uart2.o(i.fputc) for fputc
    printf6.o(i.__0printf$6) refers to stdout.o(.data) for __stdout
    printf6.o(i.__0snprintf$6) refers to printf6.o(i._printf_core) for _printf_core
    printf6.o(i.__0snprintf$6) refers to printf6.o(i._snputc) for _snputc
    printf6.o(i.__0sprintf$6) refers to printf6.o(i._printf_core) for _printf_core
    printf6.o(i.__0sprintf$6) refers to printf6.o(i._sputc) for _sputc
    printf6.o(i.__0vfprintf$6) refers to printf6.o(i._printf_core) for _printf_core
    printf6.o(i.__0vfprintf$6) refers to uart2.o(i.fputc) for fputc
    printf6.o(i.__0vprintf$6) refers to printf6.o(i._printf_core) for _printf_core
    printf6.o(i.__0vprintf$6) refers to uart2.o(i.fputc) for fputc
    printf6.o(i.__0vprintf$6) refers to stdout.o(.data) for __stdout
    printf6.o(i.__0vsnprintf$6) refers to printf6.o(i._printf_core) for _printf_core
    printf6.o(i.__0vsnprintf$6) refers to printf6.o(i._snputc) for _snputc
    printf6.o(i.__0vsprintf$6) refers to printf6.o(i._printf_core) for _printf_core
    printf6.o(i.__0vsprintf$6) refers to printf6.o(i._sputc) for _sputc
    printf6.o(i._printf_core) refers to printf6.o(i._printf_pre_padding) for _printf_pre_padding
    printf6.o(i._printf_core) refers to uidiv.o(.text) for __aeabi_uidivmod
    printf6.o(i._printf_core) refers to printf6.o(i._printf_post_padding) for _printf_post_padding
    printf7.o(i.__0fprintf$7) refers to printf7.o(i._printf_core) for _printf_core
    printf7.o(i.__0fprintf$7) refers to uart2.o(i.fputc) for fputc
    printf7.o(i.__0printf$7) refers to printf7.o(i._printf_core) for _printf_core
    printf7.o(i.__0printf$7) refers to uart2.o(i.fputc) for fputc
    printf7.o(i.__0printf$7) refers to stdout.o(.data) for __stdout
    printf7.o(i.__0snprintf$7) refers to printf7.o(i._printf_core) for _printf_core
    printf7.o(i.__0snprintf$7) refers to printf7.o(i._snputc) for _snputc
    printf7.o(i.__0sprintf$7) refers to printf7.o(i._printf_core) for _printf_core
    printf7.o(i.__0sprintf$7) refers to printf7.o(i._sputc) for _sputc
    printf7.o(i.__0vfprintf$7) refers to printf7.o(i._printf_core) for _printf_core
    printf7.o(i.__0vfprintf$7) refers to uart2.o(i.fputc) for fputc
    printf7.o(i.__0vprintf$7) refers to printf7.o(i._printf_core) for _printf_core
    printf7.o(i.__0vprintf$7) refers to uart2.o(i.fputc) for fputc
    printf7.o(i.__0vprintf$7) refers to stdout.o(.data) for __stdout
    printf7.o(i.__0vsnprintf$7) refers to printf7.o(i._printf_core) for _printf_core
    printf7.o(i.__0vsnprintf$7) refers to printf7.o(i._snputc) for _snputc
    printf7.o(i.__0vsprintf$7) refers to printf7.o(i._printf_core) for _printf_core
    printf7.o(i.__0vsprintf$7) refers to printf7.o(i._sputc) for _sputc
    printf7.o(i._printf_core) refers to printf7.o(i._printf_pre_padding) for _printf_pre_padding
    printf7.o(i._printf_core) refers to uldiv.o(.text) for __aeabi_uldivmod
    printf7.o(i._printf_core) refers to printf7.o(i._printf_post_padding) for _printf_post_padding
    printf8.o(i.__0fprintf$8) refers to printf8.o(i._printf_core) for _printf_core
    printf8.o(i.__0fprintf$8) refers to uart2.o(i.fputc) for fputc
    printf8.o(i.__0printf$8) refers to printf8.o(i._printf_core) for _printf_core
    printf8.o(i.__0printf$8) refers to uart2.o(i.fputc) for fputc
    printf8.o(i.__0printf$8) refers to stdout.o(.data) for __stdout
    printf8.o(i.__0snprintf$8) refers to printf8.o(i._printf_core) for _printf_core
    printf8.o(i.__0snprintf$8) refers to printf8.o(i._snputc) for _snputc
    printf8.o(i.__0sprintf$8) refers to printf8.o(i._printf_core) for _printf_core
    printf8.o(i.__0sprintf$8) refers to printf8.o(i._sputc) for _sputc
    printf8.o(i.__0vfprintf$8) refers to printf8.o(i._printf_core) for _printf_core
    printf8.o(i.__0vfprintf$8) refers to uart2.o(i.fputc) for fputc
    printf8.o(i.__0vprintf$8) refers to printf8.o(i._printf_core) for _printf_core
    printf8.o(i.__0vprintf$8) refers to uart2.o(i.fputc) for fputc
    printf8.o(i.__0vprintf$8) refers to stdout.o(.data) for __stdout
    printf8.o(i.__0vsnprintf$8) refers to printf8.o(i._printf_core) for _printf_core
    printf8.o(i.__0vsnprintf$8) refers to printf8.o(i._snputc) for _snputc
    printf8.o(i.__0vsprintf$8) refers to printf8.o(i._printf_core) for _printf_core
    printf8.o(i.__0vsprintf$8) refers to printf8.o(i._sputc) for _sputc
    printf8.o(i._printf_core) refers to printf8.o(i._printf_pre_padding) for _printf_pre_padding
    printf8.o(i._printf_core) refers to uldiv.o(.text) for __aeabi_uldivmod
    printf8.o(i._printf_core) refers to printf8.o(i._printf_post_padding) for _printf_post_padding
    printfa.o(i.__0fprintf) refers (Special) to iusefp.o(.text) for __I$use$fp
    printfa.o(i.__0fprintf) refers to printfa.o(i._printf_core) for _printf_core
    printfa.o(i.__0fprintf) refers to uart2.o(i.fputc) for fputc
    printfa.o(i.__0printf) refers (Special) to iusefp.o(.text) for __I$use$fp
    printfa.o(i.__0printf) refers to printfa.o(i._printf_core) for _printf_core
    printfa.o(i.__0printf) refers to uart2.o(i.fputc) for fputc
    printfa.o(i.__0printf) refers to stdout.o(.data) for __stdout
    printfa.o(i.__0snprintf) refers (Special) to iusefp.o(.text) for __I$use$fp
    printfa.o(i.__0snprintf) refers to printfa.o(i._printf_core) for _printf_core
    printfa.o(i.__0snprintf) refers to printfa.o(i._snputc) for _snputc
    printfa.o(i.__0sprintf) refers (Special) to iusefp.o(.text) for __I$use$fp
    printfa.o(i.__0sprintf) refers to printfa.o(i._printf_core) for _printf_core
    printfa.o(i.__0sprintf) refers to printfa.o(i._sputc) for _sputc
    printfa.o(i.__0vfprintf) refers (Special) to iusefp.o(.text) for __I$use$fp
    printfa.o(i.__0vfprintf) refers to printfa.o(i._printf_core) for _printf_core
    printfa.o(i.__0vfprintf) refers to uart2.o(i.fputc) for fputc
    printfa.o(i.__0vprintf) refers (Special) to iusefp.o(.text) for __I$use$fp
    printfa.o(i.__0vprintf) refers to printfa.o(i._printf_core) for _printf_core
    printfa.o(i.__0vprintf) refers to uart2.o(i.fputc) for fputc
    printfa.o(i.__0vprintf) refers to stdout.o(.data) for __stdout
    printfa.o(i.__0vsnprintf) refers (Special) to iusefp.o(.text) for __I$use$fp
    printfa.o(i.__0vsnprintf) refers to printfa.o(i._printf_core) for _printf_core
    printfa.o(i.__0vsnprintf) refers to printfa.o(i._snputc) for _snputc
    printfa.o(i.__0vsprintf) refers (Special) to iusefp.o(.text) for __I$use$fp
    printfa.o(i.__0vsprintf) refers to printfa.o(i._printf_core) for _printf_core
    printfa.o(i.__0vsprintf) refers to printfa.o(i._sputc) for _sputc
    printfa.o(i._fp_digits) refers (Special) to iusefp.o(.text) for __I$use$fp
    printfa.o(i._fp_digits) refers to dmul.o(.text) for __aeabi_dmul
    printfa.o(i._fp_digits) refers to ddiv.o(.text) for __aeabi_ddiv
    printfa.o(i._fp_digits) refers to cdrcmple.o(.text) for __aeabi_cdrcmple
    printfa.o(i._fp_digits) refers to dadd.o(.text) for __aeabi_dadd
    printfa.o(i._fp_digits) refers to dfixul.o(.text) for __aeabi_d2ulz
    printfa.o(i._fp_digits) refers to uldiv.o(.text) for __aeabi_uldivmod
    printfa.o(i._printf_core) refers (Special) to iusefp.o(.text) for __I$use$fp
    printfa.o(i._printf_core) refers to printfa.o(i._printf_pre_padding) for _printf_pre_padding
    printfa.o(i._printf_core) refers to uldiv.o(.text) for __aeabi_uldivmod
    printfa.o(i._printf_core) refers to printfa.o(i._printf_post_padding) for _printf_post_padding
    printfa.o(i._printf_core) refers to printfa.o(i._fp_digits) for _fp_digits
    printfa.o(i._printf_core) refers to uidiv.o(.text) for __aeabi_uidivmod
    printfa.o(i._printf_post_padding) refers (Special) to iusefp.o(.text) for __I$use$fp
    printfa.o(i._printf_pre_padding) refers (Special) to iusefp.o(.text) for __I$use$fp
    printfa.o(i._snputc) refers (Special) to iusefp.o(.text) for __I$use$fp
    printfa.o(i._sputc) refers (Special) to iusefp.o(.text) for __I$use$fp
    malloc.o(i.free) refers to mvars.o(.data) for __microlib_freelist
    malloc.o(i.malloc) refers to mvars.o(.data) for __microlib_freelist_initialised
    malloc.o(i.malloc) refers to mvars.o(.data) for __microlib_freelist
    malloc.o(i.malloc) refers to startup_gd32f30x_hd.o(HEAP) for __heap_base
    mallocr.o(i.__free$realloc) refers to mvars.o(.data) for __microlib_freelist
    mallocr.o(i.__malloc$realloc) refers to mallocr.o(i.internal_alloc) for internal_alloc
    mallocr.o(i.__malloc$realloc) refers to mvars.o(.data) for __microlib_freelist_initialised
    mallocr.o(i.__malloc$realloc) refers to startup_gd32f30x_hd.o(HEAP) for __heap_base
    mallocr.o(i.__malloc$realloc) refers to mvars.o(.data) for __microlib_freelist
    mallocr.o(i.internal_alloc) refers to memcpya.o(.text) for __aeabi_memcpy
    mallocr.o(i.internal_alloc) refers to mvars.o(.data) for __microlib_freelist
    mallocr.o(i.realloc) refers to mallocr.o(i.__free$realloc) for __free$realloc
    mallocr.o(i.realloc) refers to mallocr.o(i.internal_alloc) for internal_alloc
    mallocr.o(i.realloc) refers to mallocr.o(i.__malloc$realloc) for __malloc$realloc
    mallocr.o(i.realloc) refers to mvars.o(.data) for __microlib_freelist
    malloca.o(i.__aligned_malloc) refers to mvars.o(.data) for __microlib_freelist_initialised
    malloca.o(i.__aligned_malloc) refers to mvars.o(.data) for __microlib_freelist
    malloca.o(i.__aligned_malloc) refers to startup_gd32f30x_hd.o(HEAP) for __heap_base
    malloca.o(i.__free$memalign) refers to mvars.o(.data) for __microlib_freelist
    malloca.o(i.__malloc$memalign) refers to malloca.o(i.__aligned_malloc) for __aligned_malloc
    mallocra.o(i.__aligned_malloc$realloc) refers to mallocra.o(i.internal_alloc) for internal_alloc
    mallocra.o(i.__aligned_malloc$realloc) refers to mvars.o(.data) for __microlib_freelist_initialised
    mallocra.o(i.__aligned_malloc$realloc) refers to startup_gd32f30x_hd.o(HEAP) for __heap_base
    mallocra.o(i.__aligned_malloc$realloc) refers to mvars.o(.data) for __microlib_freelist
    mallocra.o(i.__free$realloc$memalign) refers to mvars.o(.data) for __microlib_freelist
    mallocra.o(i.__malloc$realloc$memalign) refers to mallocra.o(i.__aligned_malloc$realloc) for __aligned_malloc$realloc
    mallocra.o(i.__realloc$memalign) refers to mallocra.o(i.__free$realloc$memalign) for __free$realloc$memalign
    mallocra.o(i.__realloc$memalign) refers to mallocra.o(i.internal_alloc) for internal_alloc
    mallocra.o(i.__realloc$memalign) refers to mallocra.o(i.__malloc$realloc$memalign) for __malloc$realloc$memalign
    mallocra.o(i.__realloc$memalign) refers to mvars.o(.data) for __microlib_freelist
    mallocra.o(i.internal_alloc) refers to memcpya.o(.text) for __aeabi_memcpy
    mallocra.o(i.internal_alloc) refers to mvars.o(.data) for __microlib_freelist
    dadd.o(.text) refers (Special) to iusefp.o(.text) for __I$use$fp
    dadd.o(.text) refers to llshl.o(.text) for __aeabi_llsl
    dadd.o(.text) refers to llsshr.o(.text) for __aeabi_lasr
    dadd.o(.text) refers to depilogue.o(.text) for _double_epilogue
    dmul.o(.text) refers (Special) to iusefp.o(.text) for __I$use$fp
    dmul.o(.text) refers to depilogue.o(.text) for _double_epilogue
    ddiv.o(.text) refers (Special) to iusefp.o(.text) for __I$use$fp
    ddiv.o(.text) refers to depilogue.o(.text) for _double_round
    dflti.o(.text) refers (Special) to iusefp.o(.text) for __I$use$fp
    dflti.o(.text) refers to depilogue.o(.text) for _double_epilogue
    dfltui.o(.text) refers (Special) to iusefp.o(.text) for __I$use$fp
    dfltui.o(.text) refers to depilogue.o(.text) for _double_epilogue
    dfixi.o(.text) refers (Special) to iusefp.o(.text) for __I$use$fp
    dfixi.o(.text) refers to llushr.o(.text) for __aeabi_llsr
    f2d.o(.text) refers (Special) to iusefp.o(.text) for __I$use$fp
    cdcmple.o(.text) refers (Special) to iusefp.o(.text) for __I$use$fp
    cdrcmple.o(.text) refers (Special) to iusefp.o(.text) for __I$use$fp
    d2f.o(.text) refers (Special) to iusefp.o(.text) for __I$use$fp
    d2f.o(.text) refers to fepilogue.o(.text) for _float_round
    entry2.o(.ARM.Collect$$$$00000001) refers to entry2.o(.ARM.Collect$$$$00002712) for __lit__00000000
    entry2.o(.ARM.Collect$$$$00002712) refers to startup_gd32f30x_hd.o(STACK) for __initial_sp
    entry2.o(__vectab_stack_and_reset_area) refers to startup_gd32f30x_hd.o(STACK) for __initial_sp
    entry2.o(__vectab_stack_and_reset_area) refers to entry.o(.ARM.Collect$$$$00000000) for __main
    entry5.o(.ARM.Collect$$$$00000004) refers to init.o(.text) for __scatterload
    entry9a.o(.ARM.Collect$$$$0000000B) refers to main.o(i.main) for main
    entry9b.o(.ARM.Collect$$$$0000000C) refers to main.o(i.main) for main
    depilogue.o(.text) refers to llshl.o(.text) for __aeabi_llsl
    depilogue.o(.text) refers to llushr.o(.text) for __aeabi_llsr
    dfixul.o(.text) refers to llushr.o(.text) for __aeabi_llsr
    dfixul.o(.text) refers to llshl.o(.text) for __aeabi_llsl
    init.o(.text) refers to entry5.o(.ARM.Collect$$$$00000004) for __main_after_scatterload


==============================================================================

Removing Unused input sections from the image.

    Removing main.o(.rev16_text), (4 bytes).
    Removing main.o(.revsh_text), (4 bytes).
    Removing main.o(.rrx_text), (6 bytes).
    Removing delay.o(.rev16_text), (4 bytes).
    Removing delay.o(.revsh_text), (4 bytes).
    Removing delay.o(.rrx_text), (6 bytes).
    Removing delay.o(i.DelayNms), (18 bytes).
    Removing delay.o(i.DelayNus), (24 bytes).
    Removing led.o(.rev16_text), (4 bytes).
    Removing led.o(.revsh_text), (4 bytes).
    Removing led.o(.rrx_text), (6 bytes).
    Removing filter.o(.rev16_text), (4 bytes).
    Removing filter.o(.revsh_text), (4 bytes).
    Removing filter.o(.rrx_text), (6 bytes).
    Removing filter.o(i.FreeIRR_Filter_str), (18 bytes).
    Removing ecg.o(.rev16_text), (4 bytes).
    Removing ecg.o(.revsh_text), (4 bytes).
    Removing ecg.o(.rrx_text), (6 bytes).
    Removing spo2_hw_cfg.o(.rev16_text), (4 bytes).
    Removing spo2_hw_cfg.o(.revsh_text), (4 bytes).
    Removing spo2_hw_cfg.o(.rrx_text), (6 bytes).
    Removing spo2.o(.rev16_text), (4 bytes).
    Removing spo2.o(.revsh_text), (4 bytes).
    Removing spo2.o(.rrx_text), (6 bytes).
    Removing nibp.o(.rev16_text), (4 bytes).
    Removing nibp.o(.revsh_text), (4 bytes).
    Removing nibp.o(.rrx_text), (6 bytes).
    Removing nibp_hw_cfg.o(.rev16_text), (4 bytes).
    Removing nibp_hw_cfg.o(.revsh_text), (4 bytes).
    Removing nibp_hw_cfg.o(.rrx_text), (6 bytes).
    Removing nibp_hw_cfg.o(i.Adult_mode), (16 bytes).
    Removing nibp_hw_cfg.o(i.Baby_mode), (16 bytes).
    Removing polynomialfit.o(i.CalcPolyIntegral), (296 bytes).
    Removing polynomialfit.o(i.FindMaxInPolynomial), (236 bytes).
    Removing calculate.o(.rev16_text), (4 bytes).
    Removing calculate.o(.revsh_text), (4 bytes).
    Removing calculate.o(.rrx_text), (6 bytes).
    Removing sprintf.o(.rev16_text), (4 bytes).
    Removing sprintf.o(.revsh_text), (4 bytes).
    Removing sprintf.o(.rrx_text), (6 bytes).
    Removing queue.o(.rev16_text), (4 bytes).
    Removing queue.o(.revsh_text), (4 bytes).
    Removing queue.o(.rrx_text), (6 bytes).
    Removing queue.o(i.ClearQueue), (10 bytes).
    Removing queue.o(i.QueueLength), (8 bytes).
    Removing uart0.o(.rev16_text), (4 bytes).
    Removing uart0.o(.revsh_text), (4 bytes).
    Removing uart0.o(.rrx_text), (6 bytes).
    Removing uart0.o(i.EnableUARTTx), (28 bytes).
    Removing uart0.o(i.ReadUART0), (28 bytes).
    Removing uart0.o(i.WriteUART0), (48 bytes).
    Removing adc.o(.rev16_text), (4 bytes).
    Removing adc.o(.revsh_text), (4 bytes).
    Removing adc.o(.rrx_text), (6 bytes).
    Removing adc.o(i.GetVpro), (12 bytes).
    Removing uart1.o(.rev16_text), (4 bytes).
    Removing uart1.o(.revsh_text), (4 bytes).
    Removing uart1.o(.rrx_text), (6 bytes).
    Removing uart1.o(i.EnableUARTTx), (28 bytes).
    Removing uart1.o(i.ReadUART1), (28 bytes).
    Removing uart1.o(i.WriteUART1), (48 bytes).
    Removing uart2.o(.rev16_text), (4 bytes).
    Removing uart2.o(.revsh_text), (4 bytes).
    Removing uart2.o(.rrx_text), (6 bytes).
    Removing uart2.o(i.EnableUARTTx), (28 bytes).
    Removing uart2.o(i.WriteUART2), (48 bytes).
    Removing gd32f30x_fmc.o(.rev16_text), (4 bytes).
    Removing gd32f30x_fmc.o(.revsh_text), (4 bytes).
    Removing gd32f30x_fmc.o(.rrx_text), (6 bytes).
    Removing gd32f30x_fmc.o(i.fmc_bank0_erase), (68 bytes).
    Removing gd32f30x_fmc.o(i.fmc_bank0_lock), (20 bytes).
    Removing gd32f30x_fmc.o(i.fmc_bank0_ready_wait), (34 bytes).
    Removing gd32f30x_fmc.o(i.fmc_bank0_state_get), (48 bytes).
    Removing gd32f30x_fmc.o(i.fmc_bank0_unlock), (36 bytes).
    Removing gd32f30x_fmc.o(i.fmc_bank1_erase), (68 bytes).
    Removing gd32f30x_fmc.o(i.fmc_bank1_lock), (20 bytes).
    Removing gd32f30x_fmc.o(i.fmc_bank1_ready_wait), (34 bytes).
    Removing gd32f30x_fmc.o(i.fmc_bank1_state_get), (48 bytes).
    Removing gd32f30x_fmc.o(i.fmc_bank1_unlock), (36 bytes).
    Removing gd32f30x_fmc.o(i.fmc_flag_clear), (32 bytes).
    Removing gd32f30x_fmc.o(i.fmc_flag_get), (36 bytes).
    Removing gd32f30x_fmc.o(i.fmc_halfword_program), (192 bytes).
    Removing gd32f30x_fmc.o(i.fmc_interrupt_disable), (32 bytes).
    Removing gd32f30x_fmc.o(i.fmc_interrupt_enable), (32 bytes).
    Removing gd32f30x_fmc.o(i.fmc_interrupt_flag_clear), (32 bytes).
    Removing gd32f30x_fmc.o(i.fmc_interrupt_flag_get), (108 bytes).
    Removing gd32f30x_fmc.o(i.fmc_lock), (44 bytes).
    Removing gd32f30x_fmc.o(i.fmc_mass_erase), (200 bytes).
    Removing gd32f30x_fmc.o(i.fmc_page_erase), (236 bytes).
    Removing gd32f30x_fmc.o(i.fmc_unlock), (68 bytes).
    Removing gd32f30x_fmc.o(i.fmc_word_program), (192 bytes).
    Removing gd32f30x_fmc.o(i.fmc_word_reprogram), (244 bytes).
    Removing gd32f30x_fmc.o(i.fmc_wscnt_set), (24 bytes).
    Removing gd32f30x_fmc.o(i.ob_data_get), (16 bytes).
    Removing gd32f30x_fmc.o(i.ob_data_program), (68 bytes).
    Removing gd32f30x_fmc.o(i.ob_erase), (140 bytes).
    Removing gd32f30x_fmc.o(i.ob_lock), (20 bytes).
    Removing gd32f30x_fmc.o(i.ob_security_protection_config), (132 bytes).
    Removing gd32f30x_fmc.o(i.ob_spc_get), (24 bytes).
    Removing gd32f30x_fmc.o(i.ob_unlock), (36 bytes).
    Removing gd32f30x_fmc.o(i.ob_user_get), (16 bytes).
    Removing gd32f30x_fmc.o(i.ob_user_write), (96 bytes).
    Removing gd32f30x_fmc.o(i.ob_write_protection_enable), (168 bytes).
    Removing gd32f30x_fmc.o(i.ob_write_protection_get), (12 bytes).
    Removing gd32f30x_gpio.o(.rev16_text), (4 bytes).
    Removing gd32f30x_gpio.o(.revsh_text), (4 bytes).
    Removing gd32f30x_gpio.o(.rrx_text), (6 bytes).
    Removing gd32f30x_gpio.o(i.gpio_afio_deinit), (20 bytes).
    Removing gd32f30x_gpio.o(i.gpio_compensation_config), (24 bytes).
    Removing gd32f30x_gpio.o(i.gpio_compensation_flag_get), (24 bytes).
    Removing gd32f30x_gpio.o(i.gpio_deinit), (196 bytes).
    Removing gd32f30x_gpio.o(i.gpio_event_output_config), (28 bytes).
    Removing gd32f30x_gpio.o(i.gpio_event_output_disable), (20 bytes).
    Removing gd32f30x_gpio.o(i.gpio_event_output_enable), (20 bytes).
    Removing gd32f30x_gpio.o(i.gpio_input_port_get), (8 bytes).
    Removing gd32f30x_gpio.o(i.gpio_output_port_get), (8 bytes).
    Removing gd32f30x_gpio.o(i.gpio_pin_lock), (18 bytes).
    Removing gd32f30x_gpio.o(i.gpio_pin_remap_config), (144 bytes).
    Removing gd32f30x_gpio.o(i.gpio_port_write), (4 bytes).
    Removing gd32f30x_misc.o(.rev16_text), (4 bytes).
    Removing gd32f30x_misc.o(.revsh_text), (4 bytes).
    Removing gd32f30x_misc.o(.rrx_text), (6 bytes).
    Removing gd32f30x_misc.o(i.nvic_irq_disable), (24 bytes).
    Removing gd32f30x_misc.o(i.nvic_vector_table_set), (20 bytes).
    Removing gd32f30x_misc.o(i.system_lowpower_reset), (16 bytes).
    Removing gd32f30x_misc.o(i.system_lowpower_set), (16 bytes).
    Removing gd32f30x_misc.o(i.systick_clksource_set), (40 bytes).
    Removing gd32f30x_rcu.o(.rev16_text), (4 bytes).
    Removing gd32f30x_rcu.o(.revsh_text), (4 bytes).
    Removing gd32f30x_rcu.o(.rrx_text), (6 bytes).
    Removing gd32f30x_rcu.o(i.rcu_ahb_clock_config), (24 bytes).
    Removing gd32f30x_rcu.o(i.rcu_all_reset_flag_clear), (20 bytes).
    Removing gd32f30x_rcu.o(i.rcu_apb1_clock_config), (24 bytes).
    Removing gd32f30x_rcu.o(i.rcu_apb2_clock_config), (24 bytes).
    Removing gd32f30x_rcu.o(i.rcu_bkp_reset_disable), (20 bytes).
    Removing gd32f30x_rcu.o(i.rcu_bkp_reset_enable), (20 bytes).
    Removing gd32f30x_rcu.o(i.rcu_ck48m_clock_config), (28 bytes).
    Removing gd32f30x_rcu.o(i.rcu_ckout0_config), (24 bytes).
    Removing gd32f30x_rcu.o(i.rcu_deepsleep_voltage_set), (16 bytes).
    Removing gd32f30x_rcu.o(i.rcu_deinit), (84 bytes).
    Removing gd32f30x_rcu.o(i.rcu_flag_get), (36 bytes).
    Removing gd32f30x_rcu.o(i.rcu_hxtal_clock_monitor_disable), (20 bytes).
    Removing gd32f30x_rcu.o(i.rcu_hxtal_clock_monitor_enable), (20 bytes).
    Removing gd32f30x_rcu.o(i.rcu_interrupt_disable), (32 bytes).
    Removing gd32f30x_rcu.o(i.rcu_interrupt_enable), (32 bytes).
    Removing gd32f30x_rcu.o(i.rcu_interrupt_flag_clear), (32 bytes).
    Removing gd32f30x_rcu.o(i.rcu_interrupt_flag_get), (36 bytes).
    Removing gd32f30x_rcu.o(i.rcu_irc8m_adjust_value_set), (28 bytes).
    Removing gd32f30x_rcu.o(i.rcu_lxtal_drive_capability_config), (24 bytes).
    Removing gd32f30x_rcu.o(i.rcu_osci_bypass_mode_disable), (100 bytes).
    Removing gd32f30x_rcu.o(i.rcu_osci_bypass_mode_enable), (100 bytes).
    Removing gd32f30x_rcu.o(i.rcu_osci_off), (32 bytes).
    Removing gd32f30x_rcu.o(i.rcu_osci_on), (32 bytes).
    Removing gd32f30x_rcu.o(i.rcu_osci_stab_wait), (272 bytes).
    Removing gd32f30x_rcu.o(i.rcu_periph_clock_disable), (32 bytes).
    Removing gd32f30x_rcu.o(i.rcu_periph_clock_sleep_disable), (32 bytes).
    Removing gd32f30x_rcu.o(i.rcu_periph_clock_sleep_enable), (32 bytes).
    Removing gd32f30x_rcu.o(i.rcu_pll_config), (32 bytes).
    Removing gd32f30x_rcu.o(i.rcu_pllpresel_config), (24 bytes).
    Removing gd32f30x_rcu.o(i.rcu_predv0_config), (32 bytes).
    Removing gd32f30x_rcu.o(i.rcu_rtc_clock_config), (24 bytes).
    Removing gd32f30x_rcu.o(i.rcu_system_clock_source_config), (24 bytes).
    Removing gd32f30x_rcu.o(i.rcu_system_clock_source_get), (16 bytes).
    Removing gd32f30x_rcu.o(i.rcu_usb_clock_config), (24 bytes).
    Removing gd32f30x_timer.o(.rev16_text), (4 bytes).
    Removing gd32f30x_timer.o(.revsh_text), (4 bytes).
    Removing gd32f30x_timer.o(.rrx_text), (6 bytes).
    Removing gd32f30x_timer.o(i.timer_auto_reload_shadow_disable), (10 bytes).
    Removing gd32f30x_timer.o(i.timer_auto_reload_shadow_enable), (10 bytes).
    Removing gd32f30x_timer.o(i.timer_automatic_output_disable), (10 bytes).
    Removing gd32f30x_timer.o(i.timer_automatic_output_enable), (10 bytes).
    Removing gd32f30x_timer.o(i.timer_autoreload_value_config), (4 bytes).
    Removing gd32f30x_timer.o(i.timer_break_config), (30 bytes).
    Removing gd32f30x_timer.o(i.timer_break_disable), (10 bytes).
    Removing gd32f30x_timer.o(i.timer_break_enable), (10 bytes).
    Removing gd32f30x_timer.o(i.timer_break_struct_para_init), (18 bytes).
    Removing gd32f30x_timer.o(i.timer_channel_capture_value_register_read), (42 bytes).
    Removing gd32f30x_timer.o(i.timer_channel_complementary_output_polarity_config), (70 bytes).
    Removing gd32f30x_timer.o(i.timer_channel_complementary_output_state_config), (70 bytes).
    Removing gd32f30x_timer.o(i.timer_channel_control_shadow_config), (24 bytes).
    Removing gd32f30x_timer.o(i.timer_channel_control_shadow_update_config), (26 bytes).
    Removing gd32f30x_timer.o(i.timer_channel_dma_request_source_select), (26 bytes).
    Removing gd32f30x_timer.o(i.timer_channel_input_capture_prescaler_config), (90 bytes).
    Removing gd32f30x_timer.o(i.timer_channel_input_struct_para_init), (16 bytes).
    Removing gd32f30x_timer.o(i.timer_channel_output_clear_config), (90 bytes).
    Removing gd32f30x_timer.o(i.timer_channel_output_config), (492 bytes).
    Removing gd32f30x_timer.o(i.timer_channel_output_fast_config), (90 bytes).
    Removing gd32f30x_timer.o(i.timer_channel_output_mode_config), (90 bytes).
    Removing gd32f30x_timer.o(i.timer_channel_output_polarity_config), (92 bytes).
    Removing gd32f30x_timer.o(i.timer_channel_output_pulse_value_config), (38 bytes).
    Removing gd32f30x_timer.o(i.timer_channel_output_shadow_config), (90 bytes).
    Removing gd32f30x_timer.o(i.timer_channel_output_state_config), (92 bytes).
    Removing gd32f30x_timer.o(i.timer_channel_output_struct_para_init), (16 bytes).
    Removing gd32f30x_timer.o(i.timer_counter_alignment), (16 bytes).
    Removing gd32f30x_timer.o(i.timer_counter_down_direction), (10 bytes).
    Removing gd32f30x_timer.o(i.timer_counter_read), (8 bytes).
    Removing gd32f30x_timer.o(i.timer_counter_up_direction), (10 bytes).
    Removing gd32f30x_timer.o(i.timer_counter_value_config), (4 bytes).
    Removing gd32f30x_timer.o(i.timer_disable), (10 bytes).
    Removing gd32f30x_timer.o(i.timer_dma_disable), (8 bytes).
    Removing gd32f30x_timer.o(i.timer_dma_enable), (8 bytes).
    Removing gd32f30x_timer.o(i.timer_dma_transfer_config), (24 bytes).
    Removing gd32f30x_timer.o(i.timer_event_software_generate), (8 bytes).
    Removing gd32f30x_timer.o(i.timer_external_clock_mode0_config), (40 bytes).
    Removing gd32f30x_timer.o(i.timer_external_clock_mode1_config), (32 bytes).
    Removing gd32f30x_timer.o(i.timer_external_clock_mode1_disable), (10 bytes).
    Removing gd32f30x_timer.o(i.timer_external_trigger_as_external_clock_config), (166 bytes).
    Removing gd32f30x_timer.o(i.timer_external_trigger_config), (30 bytes).
    Removing gd32f30x_timer.o(i.timer_flag_clear), (6 bytes).
    Removing gd32f30x_timer.o(i.timer_flag_get), (16 bytes).
    Removing gd32f30x_timer.o(i.timer_hall_mode_config), (26 bytes).
    Removing gd32f30x_timer.o(i.timer_input_capture_config), (326 bytes).
    Removing gd32f30x_timer.o(i.timer_input_pwm_capture_config), (356 bytes).
    Removing gd32f30x_timer.o(i.timer_input_trigger_source_select), (16 bytes).
    Removing gd32f30x_timer.o(i.timer_internal_clock_config), (10 bytes).
    Removing gd32f30x_timer.o(i.timer_internal_trigger_as_external_clock_config), (32 bytes).
    Removing gd32f30x_timer.o(i.timer_interrupt_disable), (8 bytes).
    Removing gd32f30x_timer.o(i.timer_master_output_trigger_source_select), (16 bytes).
    Removing gd32f30x_timer.o(i.timer_master_slave_mode_config), (26 bytes).
    Removing gd32f30x_timer.o(i.timer_output_value_selection_config), (34 bytes).
    Removing gd32f30x_timer.o(i.timer_prescaler_config), (14 bytes).
    Removing gd32f30x_timer.o(i.timer_prescaler_read), (10 bytes).
    Removing gd32f30x_timer.o(i.timer_primary_output_config), (24 bytes).
    Removing gd32f30x_timer.o(i.timer_quadrature_decoder_mode_config), (64 bytes).
    Removing gd32f30x_timer.o(i.timer_repetition_value_config), (4 bytes).
    Removing gd32f30x_timer.o(i.timer_single_pulse_mode_config), (26 bytes).
    Removing gd32f30x_timer.o(i.timer_slave_mode_select), (16 bytes).
    Removing gd32f30x_timer.o(i.timer_update_event_disable), (10 bytes).
    Removing gd32f30x_timer.o(i.timer_update_event_enable), (10 bytes).
    Removing gd32f30x_timer.o(i.timer_update_source_config), (26 bytes).
    Removing gd32f30x_timer.o(i.timer_write_chxval_register_config), (34 bytes).
    Removing gd32f30x_usart.o(.rev16_text), (4 bytes).
    Removing gd32f30x_usart.o(.revsh_text), (4 bytes).
    Removing gd32f30x_usart.o(.rrx_text), (6 bytes).
    Removing gd32f30x_usart.o(i.usart_address_config), (20 bytes).
    Removing gd32f30x_usart.o(i.usart_block_length_config), (28 bytes).
    Removing gd32f30x_usart.o(i.usart_data_first_config), (20 bytes).
    Removing gd32f30x_usart.o(i.usart_disable), (10 bytes).
    Removing gd32f30x_usart.o(i.usart_dma_receive_config), (16 bytes).
    Removing gd32f30x_usart.o(i.usart_dma_transmit_config), (16 bytes).
    Removing gd32f30x_usart.o(i.usart_flag_clear), (26 bytes).
    Removing gd32f30x_usart.o(i.usart_guard_time_config), (24 bytes).
    Removing gd32f30x_usart.o(i.usart_halfduplex_disable), (10 bytes).
    Removing gd32f30x_usart.o(i.usart_halfduplex_enable), (10 bytes).
    Removing gd32f30x_usart.o(i.usart_hardware_flow_cts_config), (16 bytes).
    Removing gd32f30x_usart.o(i.usart_hardware_flow_rts_config), (16 bytes).
    Removing gd32f30x_usart.o(i.usart_invert_config), (104 bytes).
    Removing gd32f30x_usart.o(i.usart_irda_lowpower_config), (20 bytes).
    Removing gd32f30x_usart.o(i.usart_irda_mode_disable), (10 bytes).
    Removing gd32f30x_usart.o(i.usart_irda_mode_enable), (10 bytes).
    Removing gd32f30x_usart.o(i.usart_lin_break_detection_length_config), (20 bytes).
    Removing gd32f30x_usart.o(i.usart_lin_mode_disable), (10 bytes).
    Removing gd32f30x_usart.o(i.usart_lin_mode_enable), (10 bytes).
    Removing gd32f30x_usart.o(i.usart_mute_mode_disable), (10 bytes).
    Removing gd32f30x_usart.o(i.usart_mute_mode_enable), (10 bytes).
    Removing gd32f30x_usart.o(i.usart_mute_mode_wakeup_config), (16 bytes).
    Removing gd32f30x_usart.o(i.usart_prescaler_config), (16 bytes).
    Removing gd32f30x_usart.o(i.usart_receiver_timeout_disable), (14 bytes).
    Removing gd32f30x_usart.o(i.usart_receiver_timeout_enable), (14 bytes).
    Removing gd32f30x_usart.o(i.usart_receiver_timeout_threshold_config), (20 bytes).
    Removing gd32f30x_usart.o(i.usart_send_break), (10 bytes).
    Removing gd32f30x_usart.o(i.usart_smartcard_autoretry_config), (26 bytes).
    Removing gd32f30x_usart.o(i.usart_smartcard_mode_disable), (10 bytes).
    Removing gd32f30x_usart.o(i.usart_smartcard_mode_enable), (10 bytes).
    Removing gd32f30x_usart.o(i.usart_smartcard_mode_nack_disable), (10 bytes).
    Removing gd32f30x_usart.o(i.usart_smartcard_mode_nack_enable), (10 bytes).
    Removing gd32f30x_usart.o(i.usart_synchronous_clock_config), (34 bytes).
    Removing gd32f30x_usart.o(i.usart_synchronous_clock_disable), (10 bytes).
    Removing gd32f30x_usart.o(i.usart_synchronous_clock_enable), (10 bytes).
    Removing gd32f30x_exmc.o(.rev16_text), (4 bytes).
    Removing gd32f30x_exmc.o(.revsh_text), (4 bytes).
    Removing gd32f30x_exmc.o(.rrx_text), (6 bytes).
    Removing gd32f30x_exmc.o(i.exmc_ecc_get), (12 bytes).
    Removing gd32f30x_exmc.o(i.exmc_flag_clear), (20 bytes).
    Removing gd32f30x_exmc.o(i.exmc_flag_get), (28 bytes).
    Removing gd32f30x_exmc.o(i.exmc_interrupt_disable), (20 bytes).
    Removing gd32f30x_exmc.o(i.exmc_interrupt_enable), (20 bytes).
    Removing gd32f30x_exmc.o(i.exmc_interrupt_flag_clear), (22 bytes).
    Removing gd32f30x_exmc.o(i.exmc_interrupt_flag_get), (38 bytes).
    Removing gd32f30x_exmc.o(i.exmc_nand_deinit), (42 bytes).
    Removing gd32f30x_exmc.o(i.exmc_nand_disable), (22 bytes).
    Removing gd32f30x_exmc.o(i.exmc_nand_ecc_config), (48 bytes).
    Removing gd32f30x_exmc.o(i.exmc_nand_enable), (22 bytes).
    Removing gd32f30x_exmc.o(i.exmc_nand_init), (174 bytes).
    Removing gd32f30x_exmc.o(i.exmc_nand_struct_para_init), (54 bytes).
    Removing gd32f30x_exmc.o(i.exmc_norsram_deinit), (52 bytes).
    Removing gd32f30x_exmc.o(i.exmc_norsram_disable), (22 bytes).
    Removing gd32f30x_exmc.o(i.exmc_norsram_enable), (22 bytes).
    Removing gd32f30x_exmc.o(i.exmc_norsram_init), (284 bytes).
    Removing gd32f30x_exmc.o(i.exmc_norsram_page_size_config), (40 bytes).
    Removing gd32f30x_exmc.o(i.exmc_norsram_struct_para_init), (106 bytes).
    Removing gd32f30x_exmc.o(i.exmc_pccard_deinit), (40 bytes).
    Removing gd32f30x_exmc.o(i.exmc_pccard_disable), (24 bytes).
    Removing gd32f30x_exmc.o(i.exmc_pccard_enable), (24 bytes).
    Removing gd32f30x_exmc.o(i.exmc_pccard_init), (192 bytes).
    Removing gd32f30x_exmc.o(i.exmc_pccard_struct_para_init), (60 bytes).
    Removing gd32f30x_dma.o(.rev16_text), (4 bytes).
    Removing gd32f30x_dma.o(.revsh_text), (4 bytes).
    Removing gd32f30x_dma.o(.rrx_text), (6 bytes).
    Removing gd32f30x_dma.o(i.dma_channel_disable), (50 bytes).
    Removing gd32f30x_dma.o(i.dma_circulation_disable), (50 bytes).
    Removing gd32f30x_dma.o(i.dma_flag_clear), (16 bytes).
    Removing gd32f30x_dma.o(i.dma_flag_get), (24 bytes).
    Removing gd32f30x_dma.o(i.dma_interrupt_disable), (50 bytes).
    Removing gd32f30x_dma.o(i.dma_interrupt_enable), (50 bytes).
    Removing gd32f30x_dma.o(i.dma_interrupt_flag_clear), (16 bytes).
    Removing gd32f30x_dma.o(i.dma_interrupt_flag_get), (130 bytes).
    Removing gd32f30x_dma.o(i.dma_memory_address_config), (36 bytes).
    Removing gd32f30x_dma.o(i.dma_memory_increase_disable), (50 bytes).
    Removing gd32f30x_dma.o(i.dma_memory_increase_enable), (50 bytes).
    Removing gd32f30x_dma.o(i.dma_memory_to_memory_enable), (50 bytes).
    Removing gd32f30x_dma.o(i.dma_memory_width_config), (58 bytes).
    Removing gd32f30x_dma.o(i.dma_periph_address_config), (36 bytes).
    Removing gd32f30x_dma.o(i.dma_periph_increase_disable), (50 bytes).
    Removing gd32f30x_dma.o(i.dma_periph_increase_enable), (50 bytes).
    Removing gd32f30x_dma.o(i.dma_periph_width_config), (58 bytes).
    Removing gd32f30x_dma.o(i.dma_priority_config), (58 bytes).
    Removing gd32f30x_dma.o(i.dma_struct_para_init), (28 bytes).
    Removing gd32f30x_dma.o(i.dma_transfer_direction_config), (84 bytes).
    Removing gd32f30x_dma.o(i.dma_transfer_number_config), (38 bytes).
    Removing gd32f30x_dma.o(i.dma_transfer_number_get), (34 bytes).
    Removing gd32f30x_sdio.o(.rev16_text), (4 bytes).
    Removing gd32f30x_sdio.o(.revsh_text), (4 bytes).
    Removing gd32f30x_sdio.o(.rrx_text), (6 bytes).
    Removing gd32f30x_sdio.o(i.sdio_bus_mode_set), (28 bytes).
    Removing gd32f30x_sdio.o(i.sdio_ceata_command_completion_disable), (20 bytes).
    Removing gd32f30x_sdio.o(i.sdio_ceata_command_completion_enable), (20 bytes).
    Removing gd32f30x_sdio.o(i.sdio_ceata_command_disable), (20 bytes).
    Removing gd32f30x_sdio.o(i.sdio_ceata_command_enable), (20 bytes).
    Removing gd32f30x_sdio.o(i.sdio_ceata_interrupt_disable), (20 bytes).
    Removing gd32f30x_sdio.o(i.sdio_ceata_interrupt_enable), (20 bytes).
    Removing gd32f30x_sdio.o(i.sdio_clock_config), (52 bytes).
    Removing gd32f30x_sdio.o(i.sdio_clock_disable), (20 bytes).
    Removing gd32f30x_sdio.o(i.sdio_clock_enable), (20 bytes).
    Removing gd32f30x_sdio.o(i.sdio_command_index_get), (12 bytes).
    Removing gd32f30x_sdio.o(i.sdio_command_response_config), (44 bytes).
    Removing gd32f30x_sdio.o(i.sdio_csm_disable), (20 bytes).
    Removing gd32f30x_sdio.o(i.sdio_csm_enable), (20 bytes).
    Removing gd32f30x_sdio.o(i.sdio_data_config), (52 bytes).
    Removing gd32f30x_sdio.o(i.sdio_data_counter_get), (12 bytes).
    Removing gd32f30x_sdio.o(i.sdio_data_read), (12 bytes).
    Removing gd32f30x_sdio.o(i.sdio_data_transfer_config), (28 bytes).
    Removing gd32f30x_sdio.o(i.sdio_data_write), (12 bytes).
    Removing gd32f30x_sdio.o(i.sdio_deinit), (28 bytes).
    Removing gd32f30x_sdio.o(i.sdio_dma_disable), (20 bytes).
    Removing gd32f30x_sdio.o(i.sdio_dma_enable), (20 bytes).
    Removing gd32f30x_sdio.o(i.sdio_dsm_disable), (20 bytes).
    Removing gd32f30x_sdio.o(i.sdio_dsm_enable), (20 bytes).
    Removing gd32f30x_sdio.o(i.sdio_fifo_counter_get), (12 bytes).
    Removing gd32f30x_sdio.o(i.sdio_flag_clear), (12 bytes).
    Removing gd32f30x_sdio.o(i.sdio_flag_get), (24 bytes).
    Removing gd32f30x_sdio.o(i.sdio_hardware_clock_disable), (20 bytes).
    Removing gd32f30x_sdio.o(i.sdio_hardware_clock_enable), (20 bytes).
    Removing gd32f30x_sdio.o(i.sdio_interrupt_disable), (16 bytes).
    Removing gd32f30x_sdio.o(i.sdio_interrupt_enable), (16 bytes).
    Removing gd32f30x_sdio.o(i.sdio_interrupt_flag_clear), (12 bytes).
    Removing gd32f30x_sdio.o(i.sdio_interrupt_flag_get), (24 bytes).
    Removing gd32f30x_sdio.o(i.sdio_operation_disable), (20 bytes).
    Removing gd32f30x_sdio.o(i.sdio_operation_enable), (20 bytes).
    Removing gd32f30x_sdio.o(i.sdio_power_state_get), (12 bytes).
    Removing gd32f30x_sdio.o(i.sdio_power_state_set), (12 bytes).
    Removing gd32f30x_sdio.o(i.sdio_readwait_disable), (20 bytes).
    Removing gd32f30x_sdio.o(i.sdio_readwait_enable), (20 bytes).
    Removing gd32f30x_sdio.o(i.sdio_readwait_type_set), (40 bytes).
    Removing gd32f30x_sdio.o(i.sdio_response_get), (56 bytes).
    Removing gd32f30x_sdio.o(i.sdio_stop_readwait_disable), (20 bytes).
    Removing gd32f30x_sdio.o(i.sdio_stop_readwait_enable), (20 bytes).
    Removing gd32f30x_sdio.o(i.sdio_suspend_disable), (20 bytes).
    Removing gd32f30x_sdio.o(i.sdio_suspend_enable), (20 bytes).
    Removing gd32f30x_sdio.o(i.sdio_wait_type_set), (28 bytes).
    Removing gd32f30x_adc.o(.rev16_text), (4 bytes).
    Removing gd32f30x_adc.o(.revsh_text), (4 bytes).
    Removing gd32f30x_adc.o(.rrx_text), (6 bytes).
    Removing gd32f30x_adc.o(i.adc_disable), (10 bytes).
    Removing gd32f30x_adc.o(i.adc_discontinuous_mode_config), (76 bytes).
    Removing gd32f30x_adc.o(i.adc_dma_mode_disable), (10 bytes).
    Removing gd32f30x_adc.o(i.adc_flag_clear), (8 bytes).
    Removing gd32f30x_adc.o(i.adc_flag_get), (14 bytes).
    Removing gd32f30x_adc.o(i.adc_inserted_channel_config), (116 bytes).
    Removing gd32f30x_adc.o(i.adc_inserted_channel_offset_config), (36 bytes).
    Removing gd32f30x_adc.o(i.adc_inserted_data_read), (46 bytes).
    Removing gd32f30x_adc.o(i.adc_interrupt_disable), (44 bytes).
    Removing gd32f30x_adc.o(i.adc_interrupt_enable), (44 bytes).
    Removing gd32f30x_adc.o(i.adc_interrupt_flag_clear), (8 bytes).
    Removing gd32f30x_adc.o(i.adc_interrupt_flag_get), (88 bytes).
    Removing gd32f30x_adc.o(i.adc_oversample_mode_config), (58 bytes).
    Removing gd32f30x_adc.o(i.adc_oversample_mode_enable), (14 bytes).
    Removing gd32f30x_adc.o(i.adc_regular_data_read), (8 bytes).
    Removing gd32f30x_adc.o(i.adc_sync_mode_convert_value_read), (12 bytes).
    Removing gd32f30x_adc.o(i.adc_tempsensor_vrefint_disable), (20 bytes).
    Removing gd32f30x_adc.o(i.adc_tempsensor_vrefint_enable), (20 bytes).
    Removing gd32f30x_adc.o(i.adc_watchdog_disable), (16 bytes).
    Removing gd32f30x_adc.o(i.adc_watchdog_group_channel_enable), (64 bytes).
    Removing gd32f30x_adc.o(i.adc_watchdog_single_channel_enable), (32 bytes).
    Removing gd32f30x_adc.o(i.adc_watchdog_threshold_config), (14 bytes).
    Removing gd32f30x_dac.o(.rev16_text), (4 bytes).
    Removing gd32f30x_dac.o(.revsh_text), (4 bytes).
    Removing gd32f30x_dac.o(.rrx_text), (6 bytes).
    Removing gd32f30x_dac.o(i.dac_concurrent_data_set), (64 bytes).
    Removing gd32f30x_dac.o(i.dac_concurrent_enable), (24 bytes).
    Removing gd32f30x_dac.o(i.dac_concurrent_output_buffer_disable), (24 bytes).
    Removing gd32f30x_dac.o(i.dac_concurrent_output_buffer_enable), (24 bytes).
    Removing gd32f30x_dac.o(i.dac_concurrent_software_trigger_disable), (20 bytes).
    Removing gd32f30x_dac.o(i.dac_concurrent_software_trigger_enable), (20 bytes).
    Removing gd32f30x_dac.o(i.dac_disable), (36 bytes).
    Removing gd32f30x_dac.o(i.dac_dma_disable), (36 bytes).
    Removing gd32f30x_dac.o(i.dac_dma_enable), (36 bytes).
    Removing gd32f30x_dac.o(i.dac_lfsr_noise_config), (52 bytes).
    Removing gd32f30x_dac.o(i.dac_output_buffer_disable), (36 bytes).
    Removing gd32f30x_dac.o(i.dac_output_value_get), (28 bytes).
    Removing gd32f30x_dac.o(i.dac_software_trigger_disable), (36 bytes).
    Removing gd32f30x_dac.o(i.dac_software_trigger_enable), (36 bytes).
    Removing gd32f30x_dac.o(i.dac_triangle_noise_config), (52 bytes).
    Removing gd32f30x_dac.o(i.dac_trigger_enable), (36 bytes).
    Removing gd32f30x_dac.o(i.dac_trigger_source_config), (52 bytes).
    Removing gd32f30x_dac.o(i.dac_wave_bit_width_config), (52 bytes).
    Removing gd32f30x_exti.o(.rev16_text), (4 bytes).
    Removing gd32f30x_exti.o(.revsh_text), (4 bytes).
    Removing gd32f30x_exti.o(.rrx_text), (6 bytes).
    Removing gd32f30x_exti.o(i.exti_deinit), (28 bytes).
    Removing gd32f30x_exti.o(i.exti_event_disable), (16 bytes).
    Removing gd32f30x_exti.o(i.exti_event_enable), (16 bytes).
    Removing gd32f30x_exti.o(i.exti_flag_clear), (12 bytes).
    Removing gd32f30x_exti.o(i.exti_flag_get), (24 bytes).
    Removing gd32f30x_exti.o(i.exti_interrupt_disable), (16 bytes).
    Removing gd32f30x_exti.o(i.exti_interrupt_enable), (16 bytes).
    Removing gd32f30x_exti.o(i.exti_software_interrupt_disable), (16 bytes).
    Removing gd32f30x_exti.o(i.exti_software_interrupt_enable), (16 bytes).
    Removing gd32f30x_it.o(.rev16_text), (4 bytes).
    Removing gd32f30x_it.o(.revsh_text), (4 bytes).
    Removing gd32f30x_it.o(.rrx_text), (6 bytes).
    Removing nvic.o(.rev16_text), (4 bytes).
    Removing nvic.o(.revsh_text), (4 bytes).
    Removing nvic.o(.rrx_text), (6 bytes).
    Removing system_gd32f30x.o(.rev16_text), (4 bytes).
    Removing system_gd32f30x.o(.revsh_text), (4 bytes).
    Removing system_gd32f30x.o(.rrx_text), (6 bytes).
    Removing system_gd32f30x.o(i.SystemCoreClockUpdate), (184 bytes).
    Removing system_gd32f30x.o(.data), (4 bytes).
    Removing bsp.o(.rev16_text), (4 bytes).
    Removing bsp.o(.revsh_text), (4 bytes).
    Removing bsp.o(.rrx_text), (6 bytes).
    Removing bsp.o(i.CPU_TS32_to_uSec), (60 bytes).
    Removing cpu_c.o(i.CPU_BitBandClr), (68 bytes).
    Removing cpu_c.o(i.CPU_BitBandSet), (68 bytes).
    Removing cpu_c.o(i.CPU_IntSrcDis), (332 bytes).
    Removing cpu_c.o(i.CPU_IntSrcEn), (332 bytes).
    Removing cpu_c.o(i.CPU_IntSrcPendClr), (164 bytes).
    Removing cpu_c.o(i.CPU_IntSrcPrioGet), (456 bytes).
    Removing cpu_c.o(i.CPU_IntSrcPrioSet), (504 bytes).
    Removing cpu_core.o(i.CPU_CntLeadZeros08), (18 bytes).
    Removing cpu_core.o(i.CPU_CntLeadZeros16), (18 bytes).
    Removing cpu_core.o(i.CPU_CntLeadZeros32), (18 bytes).
    Removing cpu_core.o(i.CPU_CntLeadZeros64), (192 bytes).
    Removing cpu_core.o(i.CPU_CntTrailZeros08), (22 bytes).
    Removing cpu_core.o(i.CPU_CntTrailZeros16), (22 bytes).
    Removing cpu_core.o(i.CPU_CntTrailZeros32), (22 bytes).
    Removing cpu_core.o(i.CPU_CntTrailZeros64), (62 bytes).
    Removing cpu_core.o(i.CPU_NameGet), (76 bytes).
    Removing cpu_core.o(i.CPU_NameSet), (100 bytes).
    Removing cpu_core.o(i.CPU_TS_Get32), (12 bytes).
    Removing cpu_core.o(i.CPU_TS_TmrFreqGet), (36 bytes).
    Removing cpu_core.o(i.CPU_TS_Update), (2 bytes).
    Removing cpu_core.o(.constdata), (260 bytes).
    Removing lib_ascii.o(i.ASCII_Cmp), (38 bytes).
    Removing lib_ascii.o(i.ASCII_IsAlpha), (48 bytes).
    Removing lib_ascii.o(i.ASCII_IsAlphaNum), (76 bytes).
    Removing lib_ascii.o(i.ASCII_IsBlank), (20 bytes).
    Removing lib_ascii.o(i.ASCII_IsCtrl), (26 bytes).
    Removing lib_ascii.o(i.ASCII_IsDig), (20 bytes).
    Removing lib_ascii.o(i.ASCII_IsDigHex), (36 bytes).
    Removing lib_ascii.o(i.ASCII_IsDigOct), (20 bytes).
    Removing lib_ascii.o(i.ASCII_IsGraph), (20 bytes).
    Removing lib_ascii.o(i.ASCII_IsLower), (20 bytes).
    Removing lib_ascii.o(i.ASCII_IsPrint), (20 bytes).
    Removing lib_ascii.o(i.ASCII_IsPunct), (134 bytes).
    Removing lib_ascii.o(i.ASCII_IsSpace), (36 bytes).
    Removing lib_ascii.o(i.ASCII_IsUpper), (20 bytes).
    Removing lib_ascii.o(i.ASCII_ToLower), (32 bytes).
    Removing lib_ascii.o(i.ASCII_ToUpper), (32 bytes).
    Removing lib_math.o(i.Math_Rand), (56 bytes).
    Removing lib_math.o(i.Math_RandSeed), (24 bytes).
    Removing lib_mem.o(i.Mem_Cmp), (192 bytes).
    Removing lib_mem.o(i.Mem_DynPoolBlkFree), (122 bytes).
    Removing lib_mem.o(i.Mem_DynPoolBlkGet), (186 bytes).
    Removing lib_mem.o(i.Mem_DynPoolBlkNbrAvailGet), (70 bytes).
    Removing lib_mem.o(i.Mem_DynPoolCreate), (64 bytes).
    Removing lib_mem.o(i.Mem_DynPoolCreateHW), (64 bytes).
    Removing lib_mem.o(i.Mem_DynPoolCreateInternal), (210 bytes).
    Removing lib_mem.o(i.Mem_HeapAlloc), (60 bytes).
    Removing lib_mem.o(i.Mem_HeapGetSizeRem), (44 bytes).
    Removing lib_mem.o(i.Mem_Move), (186 bytes).
    Removing lib_mem.o(i.Mem_PoolBlkFree), (96 bytes).
    Removing lib_mem.o(i.Mem_PoolBlkGet), (92 bytes).
    Removing lib_mem.o(i.Mem_PoolBlkGetNbrAvail), (52 bytes).
    Removing lib_mem.o(i.Mem_PoolClr), (22 bytes).
    Removing lib_mem.o(i.Mem_PoolCreate), (424 bytes).
    Removing lib_mem.o(i.Mem_SegAlloc), (52 bytes).
    Removing lib_mem.o(i.Mem_SegAllocExt), (52 bytes).
    Removing lib_mem.o(i.Mem_SegAllocExtCritical), (164 bytes).
    Removing lib_mem.o(i.Mem_SegAllocHW), (52 bytes).
    Removing lib_mem.o(i.Mem_SegAllocInternal), (100 bytes).
    Removing lib_mem.o(i.Mem_SegClr), (48 bytes).
    Removing lib_mem.o(i.Mem_SegOverlapChkCritical), (88 bytes).
    Removing lib_mem.o(i.Mem_SegRemSizeGet), (124 bytes).
    Removing lib_str.o(i.Str_Cat), (24 bytes).
    Removing lib_str.o(i.Str_Cat_N), (90 bytes).
    Removing lib_str.o(i.Str_Char), (24 bytes).
    Removing lib_str.o(i.Str_Char_Last), (24 bytes).
    Removing lib_str.o(i.Str_Char_Last_N), (76 bytes).
    Removing lib_str.o(i.Str_Char_N), (74 bytes).
    Removing lib_str.o(i.Str_Char_Replace), (28 bytes).
    Removing lib_str.o(i.Str_Char_Replace_N), (52 bytes).
    Removing lib_str.o(i.Str_Cmp), (24 bytes).
    Removing lib_str.o(i.Str_CmpIgnoreCase), (24 bytes).
    Removing lib_str.o(i.Str_CmpIgnoreCase_N), (264 bytes).
    Removing lib_str.o(i.Str_Cmp_N), (156 bytes).
    Removing lib_str.o(i.Str_Copy), (24 bytes).
    Removing lib_str.o(i.Str_Copy_N), (70 bytes).
    Removing lib_str.o(i.Str_FmtNbr_Int32), (474 bytes).
    Removing lib_str.o(i.Str_FmtNbr_Int32S), (62 bytes).
    Removing lib_str.o(i.Str_FmtNbr_Int32U), (46 bytes).
    Removing lib_str.o(i.Str_Len), (20 bytes).
    Removing lib_str.o(i.Str_Len_N), (28 bytes).
    Removing lib_str.o(i.Str_ParseNbr_Int32), (452 bytes).
    Removing lib_str.o(i.Str_ParseNbr_Int32S), (74 bytes).
    Removing lib_str.o(i.Str_ParseNbr_Int32U), (30 bytes).
    Removing lib_str.o(i.Str_Str), (24 bytes).
    Removing lib_str.o(i.Str_Str_N), (182 bytes).
    Removing lib_str.o(.constdata), (148 bytes).
    Removing lib_mem_a.o(.text), (544 bytes).
    Removing os_core.o(i.OSIntEnter), (44 bytes).
    Removing os_core.o(i.OSVersion), (12 bytes).
    Removing os_core.o(i.OS_PendAbort), (188 bytes).
    Removing os_core.o(i.OS_PendAbort1), (38 bytes).
    Removing os_core.o(i.OS_PendListInsertHead), (32 bytes).
    Removing os_core.o(i.OS_PendObjDel), (184 bytes).
    Removing os_core.o(i.OS_PendObjDel1), (38 bytes).
    Removing os_core.o(i.OS_RdyListMoveHeadToTail), (68 bytes).
    Removing os_flag.o(i.OSFlagCreate), (108 bytes).
    Removing os_flag.o(i.OSFlagDel), (296 bytes).
    Removing os_flag.o(i.OSFlagPend), (1200 bytes).
    Removing os_flag.o(i.OSFlagPendAbort), (224 bytes).
    Removing os_flag.o(i.OSFlagPendGetFlagsRdy), (56 bytes).
    Removing os_flag.o(i.OSFlagPost), (116 bytes).
    Removing os_flag.o(i.OS_FlagBlock), (60 bytes).
    Removing os_flag.o(i.OS_FlagClr), (40 bytes).
    Removing os_flag.o(i.OS_FlagDbgListAdd), (48 bytes).
    Removing os_flag.o(i.OS_FlagDbgListRemove), (48 bytes).
    Removing os_flag.o(i.OS_FlagPost), (406 bytes).
    Removing os_flag.o(i.OS_FlagTaskRdy), (100 bytes).
    Removing os_mem.o(i.OSMemCreate), (224 bytes).
    Removing os_mem.o(i.OSMemGet), (100 bytes).
    Removing os_mem.o(i.OSMemPut), (112 bytes).
    Removing os_mem.o(i.OS_MemDbgListAdd), (40 bytes).
    Removing os_mutex.o(i.OSMutexDel), (380 bytes).
    Removing os_mutex.o(i.OSMutexPendAbort), (300 bytes).
    Removing os_mutex.o(i.OS_MutexClr), (48 bytes).
    Removing os_mutex.o(i.OS_MutexDbgListRemove), (48 bytes).
    Removing os_q.o(i.OSQDel), (296 bytes).
    Removing os_q.o(i.OSQFlush), (92 bytes).
    Removing os_q.o(i.OSQPendAbort), (224 bytes).
    Removing os_q.o(i.OS_QClr), (48 bytes).
    Removing os_q.o(i.OS_QDbgListRemove), (48 bytes).
    Removing os_sem.o(i.OSSemCreate), (108 bytes).
    Removing os_sem.o(i.OSSemDel), (296 bytes).
    Removing os_sem.o(i.OSSemPend), (400 bytes).
    Removing os_sem.o(i.OSSemPendAbort), (224 bytes).
    Removing os_sem.o(i.OSSemPost), (112 bytes).
    Removing os_sem.o(i.OSSemSet), (108 bytes).
    Removing os_sem.o(i.OS_SemClr), (40 bytes).
    Removing os_sem.o(i.OS_SemDbgListAdd), (48 bytes).
    Removing os_sem.o(i.OS_SemDbgListRemove), (48 bytes).
    Removing os_sem.o(i.OS_SemPost), (294 bytes).
    Removing os_task.o(i.OSTaskChangePrio), (160 bytes).
    Removing os_task.o(i.OSTaskQFlush), (96 bytes).
    Removing os_task.o(i.OSTaskQPend), (448 bytes).
    Removing os_task.o(i.OSTaskQPendAbort), (172 bytes).
    Removing os_task.o(i.OSTaskQPost), (82 bytes).
    Removing os_task.o(i.OSTaskRegGet), (84 bytes).
    Removing os_task.o(i.OSTaskRegGetID), (88 bytes).
    Removing os_task.o(i.OSTaskRegSet), (84 bytes).
    Removing os_task.o(i.OSTaskSemPendAbort), (200 bytes).
    Removing os_task.o(i.OSTaskSemSet), (68 bytes).
    Removing os_task.o(i.OS_TaskQPost), (224 bytes).
    Removing os_time.o(i.OSTimeDlyResume), (324 bytes).
    Removing os_time.o(i.OSTimeGet), (52 bytes).
    Removing os_time.o(i.OSTimeSet), (52 bytes).
    Removing os_tmr.o(i.OSTmrCreate), (160 bytes).
    Removing os_tmr.o(i.OSTmrDel), (172 bytes).
    Removing os_tmr.o(i.OSTmrRemainGet), (140 bytes).
    Removing os_tmr.o(i.OSTmrStart), (236 bytes).
    Removing os_tmr.o(i.OSTmrStateGet), (84 bytes).
    Removing os_tmr.o(i.OSTmrStop), (208 bytes).
    Removing os_tmr.o(i.OS_TmrClr), (48 bytes).
    Removing os_tmr.o(i.OS_TmrDbgListAdd), (40 bytes).
    Removing os_tmr.o(i.OS_TmrDbgListRemove), (48 bytes).
    Removing os_app_hooks.o(i.App_OS_ClrAllHooks), (92 bytes).
    Removing os_app_hooks.o(i.App_OS_IdleTaskHook), (2 bytes).
    Removing os_app_hooks.o(i.App_OS_InitHook), (2 bytes).
    Removing os_app_hooks.o(i.App_OS_SetAllHooks), (132 bytes).
    Removing os_app_hooks.o(i.App_OS_StatTaskHook), (2 bytes).
    Removing os_app_hooks.o(i.App_OS_TaskCreateHook), (2 bytes).
    Removing os_app_hooks.o(i.App_OS_TaskDelHook), (2 bytes).
    Removing os_app_hooks.o(i.App_OS_TaskReturnHook), (2 bytes).
    Removing os_app_hooks.o(i.App_OS_TaskSwHook), (2 bytes).
    Removing os_app_hooks.o(i.App_OS_TimeTickHook), (2 bytes).
    Removing dfltui.o(.text), (26 bytes).

608 unused section(s) (total 34518 bytes) removed from the image.

==============================================================================

Image Symbol Table

    Local Symbols

    Symbol Name                              Value     Ov Type        Size  Object(Section)

    ../clib/../cmprslib/zerorunl2.c          0x00000000   Number         0  __dczerorl2.o ABSOLUTE
    ../clib/microlib/division.c              0x00000000   Number         0  uldiv.o ABSOLUTE
    ../clib/microlib/division.c              0x00000000   Number         0  uidiv.o ABSOLUTE
    ../clib/microlib/init/entry.s            0x00000000   Number         0  entry10a.o ABSOLUTE
    ../clib/microlib/init/entry.s            0x00000000   Number         0  entry9b.o ABSOLUTE
    ../clib/microlib/init/entry.s            0x00000000   Number         0  entry7a.o ABSOLUTE
    ../clib/microlib/init/entry.s            0x00000000   Number         0  entry9a.o ABSOLUTE
    ../clib/microlib/init/entry.s            0x00000000   Number         0  entry8b.o ABSOLUTE
    ../clib/microlib/init/entry.s            0x00000000   Number         0  entry8a.o ABSOLUTE
    ../clib/microlib/init/entry.s            0x00000000   Number         0  entry2.o ABSOLUTE
    ../clib/microlib/init/entry.s            0x00000000   Number         0  entry7b.o ABSOLUTE
    ../clib/microlib/init/entry.s            0x00000000   Number         0  entry.o ABSOLUTE
    ../clib/microlib/init/entry.s            0x00000000   Number         0  entry11b.o ABSOLUTE
    ../clib/microlib/init/entry.s            0x00000000   Number         0  entry11a.o ABSOLUTE
    ../clib/microlib/init/entry.s            0x00000000   Number         0  entry5.o ABSOLUTE
    ../clib/microlib/init/entry.s            0x00000000   Number         0  entry10b.o ABSOLUTE
    ../clib/microlib/longlong.c              0x00000000   Number         0  llsshr.o ABSOLUTE
    ../clib/microlib/longlong.c              0x00000000   Number         0  llshl.o ABSOLUTE
    ../clib/microlib/longlong.c              0x00000000   Number         0  llushr.o ABSOLUTE
    ../clib/microlib/malloc/malloc.c         0x00000000   Number         0  malloc.o ABSOLUTE
    ../clib/microlib/malloc/malloc.c         0x00000000   Number         0  mallocr.o ABSOLUTE
    ../clib/microlib/malloc/malloc.c         0x00000000   Number         0  malloca.o ABSOLUTE
    ../clib/microlib/malloc/malloc.c         0x00000000   Number         0  mallocra.o ABSOLUTE
    ../clib/microlib/malloc/mvars.c          0x00000000   Number         0  mvars.o ABSOLUTE
    ../clib/microlib/printf/printf.c         0x00000000   Number         0  printfa.o ABSOLUTE
    ../clib/microlib/printf/printf.c         0x00000000   Number         0  printf7.o ABSOLUTE
    ../clib/microlib/printf/printf.c         0x00000000   Number         0  printf0.o ABSOLUTE
    ../clib/microlib/printf/printf.c         0x00000000   Number         0  printf6.o ABSOLUTE
    ../clib/microlib/printf/printf.c         0x00000000   Number         0  printf8.o ABSOLUTE
    ../clib/microlib/printf/printf.c         0x00000000   Number         0  printf4.o ABSOLUTE
    ../clib/microlib/printf/printf.c         0x00000000   Number         0  printf3.o ABSOLUTE
    ../clib/microlib/printf/printf.c         0x00000000   Number         0  printf2.o ABSOLUTE
    ../clib/microlib/printf/printf.c         0x00000000   Number         0  printf1.o ABSOLUTE
    ../clib/microlib/printf/printf.c         0x00000000   Number         0  printfb.o ABSOLUTE
    ../clib/microlib/printf/printf.c         0x00000000   Number         0  printf5.o ABSOLUTE
    ../clib/microlib/printf/stubs.s          0x00000000   Number         0  stubs.o ABSOLUTE
    ../clib/microlib/stdio/streams.c         0x00000000   Number         0  stdout.o ABSOLUTE
    ../clib/microlib/string/memcpy.c         0x00000000   Number         0  memcpyb.o ABSOLUTE
    ../clib/microlib/string/memcpy.c         0x00000000   Number         0  memcpya.o ABSOLUTE
    ../clib/microlib/string/memset.c         0x00000000   Number         0  memseta.o ABSOLUTE
    ../clib/microlib/stubs.s                 0x00000000   Number         0  iusefp.o ABSOLUTE
    ../fplib/microlib/d2f.c                  0x00000000   Number         0  d2f.o ABSOLUTE
    ../fplib/microlib/f2d.c                  0x00000000   Number         0  f2d.o ABSOLUTE
    ../fplib/microlib/fpadd.c                0x00000000   Number         0  dadd.o ABSOLUTE
    ../fplib/microlib/fpdiv.c                0x00000000   Number         0  ddiv.o ABSOLUTE
    ../fplib/microlib/fpepilogue.c           0x00000000   Number         0  depilogue.o ABSOLUTE
    ../fplib/microlib/fpepilogue.c           0x00000000   Number         0  fepilogue.o ABSOLUTE
    ../fplib/microlib/fpfix.c                0x00000000   Number         0  dfixi.o ABSOLUTE
    ../fplib/microlib/fpfix.c                0x00000000   Number         0  dfixul.o ABSOLUTE
    ../fplib/microlib/fpflt.c                0x00000000   Number         0  dfltui.o ABSOLUTE
    ../fplib/microlib/fpflt.c                0x00000000   Number         0  dflti.o ABSOLUTE
    ../fplib/microlib/fpmul.c                0x00000000   Number         0  dmul.o ABSOLUTE
    ..\ARM\NVIC\NVIC.c                       0x00000000   Number         0  nvic.o ABSOLUTE
    ..\ARM\System\gd32f30x_it.c              0x00000000   Number         0  gd32f30x_it.o ABSOLUTE
    ..\ARM\System\startup_gd32f30x_hd.s      0x00000000   Number         0  startup_gd32f30x_hd.o ABSOLUTE
    ..\ARM\System\system_gd32f30x.c          0x00000000   Number         0  system_gd32f30x.o ABSOLUTE
    ..\App\Calculate\Calculate.c             0x00000000   Number         0  calculate.o ABSOLUTE
    ..\App\Delay\Delay.c                     0x00000000   Number         0  delay.o ABSOLUTE
    ..\App\ECG\ECG.c                         0x00000000   Number         0  ecg.o ABSOLUTE
    ..\App\Filter\Filter.c                   0x00000000   Number         0  filter.o ABSOLUTE
    ..\App\LED\LED.c                         0x00000000   Number         0  led.o ABSOLUTE
    ..\App\Main\Main.c                       0x00000000   Number         0  main.o ABSOLUTE
    ..\App\NIBP\NIBP.c                       0x00000000   Number         0  nibp.o ABSOLUTE
    ..\App\NIBP\NIBP_HW_CFG.c                0x00000000   Number         0  nibp_hw_cfg.o ABSOLUTE
    ..\App\PolynomialFit\PolynomialFit.c     0x00000000   Number         0  polynomialfit.o ABSOLUTE
    ..\App\SPO2\SPO2.c                       0x00000000   Number         0  spo2.o ABSOLUTE
    ..\App\SPO2\SPO2_HW_CFG.c                0x00000000   Number         0  spo2_hw_cfg.o ABSOLUTE
    ..\App\Sprintf\Sprintf.c                 0x00000000   Number         0  sprintf.o ABSOLUTE
    ..\FW\Source\gd32f30x_adc.c              0x00000000   Number         0  gd32f30x_adc.o ABSOLUTE
    ..\FW\Source\gd32f30x_dac.c              0x00000000   Number         0  gd32f30x_dac.o ABSOLUTE
    ..\FW\Source\gd32f30x_dma.c              0x00000000   Number         0  gd32f30x_dma.o ABSOLUTE
    ..\FW\Source\gd32f30x_exmc.c             0x00000000   Number         0  gd32f30x_exmc.o ABSOLUTE
    ..\FW\Source\gd32f30x_exti.c             0x00000000   Number         0  gd32f30x_exti.o ABSOLUTE
    ..\FW\Source\gd32f30x_fmc.c              0x00000000   Number         0  gd32f30x_fmc.o ABSOLUTE
    ..\FW\Source\gd32f30x_gpio.c             0x00000000   Number         0  gd32f30x_gpio.o ABSOLUTE
    ..\FW\Source\gd32f30x_misc.c             0x00000000   Number         0  gd32f30x_misc.o ABSOLUTE
    ..\FW\Source\gd32f30x_rcu.c              0x00000000   Number         0  gd32f30x_rcu.o ABSOLUTE
    ..\FW\Source\gd32f30x_sdio.c             0x00000000   Number         0  gd32f30x_sdio.o ABSOLUTE
    ..\FW\Source\gd32f30x_timer.c            0x00000000   Number         0  gd32f30x_timer.o ABSOLUTE
    ..\FW\Source\gd32f30x_usart.c            0x00000000   Number         0  gd32f30x_usart.o ABSOLUTE
    ..\HW\ADC\ADC.c                          0x00000000   Number         0  adc.o ABSOLUTE
    ..\HW\UART0\Queue.c                      0x00000000   Number         0  queue.o ABSOLUTE
    ..\HW\UART0\UART0.c                      0x00000000   Number         0  uart0.o ABSOLUTE
    ..\HW\UART1\UART1.c                      0x00000000   Number         0  uart1.o ABSOLUTE
    ..\HW\UART2\UART2.c                      0x00000000   Number         0  uart2.o ABSOLUTE
    ..\OS\UCOSIII\uC-CPU\ARM-Cortex-M4\RealView\cpu_a.asm 0x00000000   Number         0  cpu_a.o ABSOLUTE
    ..\OS\UCOSIII\uC-CPU\ARM-Cortex-M4\RealView\cpu_c.c 0x00000000   Number         0  cpu_c.o ABSOLUTE
    ..\OS\UCOSIII\uC-CPU\cpu_core.c          0x00000000   Number         0  cpu_core.o ABSOLUTE
    ..\OS\UCOSIII\uC-LIB\Ports\ARM-Cortex-M4\RealView\lib_mem_a.asm 0x00000000   Number         0  lib_mem_a.o ABSOLUTE
    ..\OS\UCOSIII\uC-LIB\lib_ascii.c         0x00000000   Number         0  lib_ascii.o ABSOLUTE
    ..\OS\UCOSIII\uC-LIB\lib_math.c          0x00000000   Number         0  lib_math.o ABSOLUTE
    ..\OS\UCOSIII\uC-LIB\lib_mem.c           0x00000000   Number         0  lib_mem.o ABSOLUTE
    ..\OS\UCOSIII\uC-LIB\lib_str.c           0x00000000   Number         0  lib_str.o ABSOLUTE
    ..\OS\UCOSIII\uCOS-BSP\bsp.c             0x00000000   Number         0  bsp.o ABSOLUTE
    ..\OS\UCOSIII\uCOS-CONFIG\os_app_hooks.c 0x00000000   Number         0  os_app_hooks.o ABSOLUTE
    ..\OS\UCOSIII\uCOS-III\Ports\ARM-Cortex-M4\Generic\RealView\os_cpu_a.asm 0x00000000   Number         0  os_cpu_a.o ABSOLUTE
    ..\OS\UCOSIII\uCOS-III\Ports\ARM-Cortex-M4\Generic\RealView\os_cpu_c.c 0x00000000   Number         0  os_cpu_c.o ABSOLUTE
    ..\OS\UCOSIII\uCOS-III\Source\os_cfg_app.c 0x00000000   Number         0  os_cfg_app.o ABSOLUTE
    ..\OS\UCOSIII\uCOS-III\Source\os_core.c  0x00000000   Number         0  os_core.o ABSOLUTE
    ..\OS\UCOSIII\uCOS-III\Source\os_dbg.c   0x00000000   Number         0  os_dbg.o ABSOLUTE
    ..\OS\UCOSIII\uCOS-III\Source\os_flag.c  0x00000000   Number         0  os_flag.o ABSOLUTE
    ..\OS\UCOSIII\uCOS-III\Source\os_int.c   0x00000000   Number         0  os_int.o ABSOLUTE
    ..\OS\UCOSIII\uCOS-III\Source\os_mem.c   0x00000000   Number         0  os_mem.o ABSOLUTE
    ..\OS\UCOSIII\uCOS-III\Source\os_msg.c   0x00000000   Number         0  os_msg.o ABSOLUTE
    ..\OS\UCOSIII\uCOS-III\Source\os_mutex.c 0x00000000   Number         0  os_mutex.o ABSOLUTE
    ..\OS\UCOSIII\uCOS-III\Source\os_pend_multi.c 0x00000000   Number         0  os_pend_multi.o ABSOLUTE
    ..\OS\UCOSIII\uCOS-III\Source\os_prio.c  0x00000000   Number         0  os_prio.o ABSOLUTE
    ..\OS\UCOSIII\uCOS-III\Source\os_q.c     0x00000000   Number         0  os_q.o ABSOLUTE
    ..\OS\UCOSIII\uCOS-III\Source\os_sem.c   0x00000000   Number         0  os_sem.o ABSOLUTE
    ..\OS\UCOSIII\uCOS-III\Source\os_stat.c  0x00000000   Number         0  os_stat.o ABSOLUTE
    ..\OS\UCOSIII\uCOS-III\Source\os_task.c  0x00000000   Number         0  os_task.o ABSOLUTE
    ..\OS\UCOSIII\uCOS-III\Source\os_tick.c  0x00000000   Number         0  os_tick.o ABSOLUTE
    ..\OS\UCOSIII\uCOS-III\Source\os_time.c  0x00000000   Number         0  os_time.o ABSOLUTE
    ..\OS\UCOSIII\uCOS-III\Source\os_tmr.c   0x00000000   Number         0  os_tmr.o ABSOLUTE
    ..\OS\UCOSIII\uCOS-III\Source\os_var.c   0x00000000   Number         0  os_var.o ABSOLUTE
    ..\\ARM\\NVIC\\NVIC.c                    0x00000000   Number         0  nvic.o ABSOLUTE
    ..\\ARM\\System\\gd32f30x_it.c           0x00000000   Number         0  gd32f30x_it.o ABSOLUTE
    ..\\ARM\\System\\system_gd32f30x.c       0x00000000   Number         0  system_gd32f30x.o ABSOLUTE
    ..\\App\\Calculate\\Calculate.c          0x00000000   Number         0  calculate.o ABSOLUTE
    ..\\App\\Delay\\Delay.c                  0x00000000   Number         0  delay.o ABSOLUTE
    ..\\App\\ECG\\ECG.c                      0x00000000   Number         0  ecg.o ABSOLUTE
    ..\\App\\Filter\\Filter.c                0x00000000   Number         0  filter.o ABSOLUTE
    ..\\App\\LED\\LED.c                      0x00000000   Number         0  led.o ABSOLUTE
    ..\\App\\Main\\Main.c                    0x00000000   Number         0  main.o ABSOLUTE
    ..\\App\\NIBP\\NIBP.c                    0x00000000   Number         0  nibp.o ABSOLUTE
    ..\\App\\NIBP\\NIBP_HW_CFG.c             0x00000000   Number         0  nibp_hw_cfg.o ABSOLUTE
    ..\\App\\SPO2\\SPO2.c                    0x00000000   Number         0  spo2.o ABSOLUTE
    ..\\App\\SPO2\\SPO2_HW_CFG.c             0x00000000   Number         0  spo2_hw_cfg.o ABSOLUTE
    ..\\App\\Sprintf\\Sprintf.c              0x00000000   Number         0  sprintf.o ABSOLUTE
    ..\\FW\\Source\\gd32f30x_adc.c           0x00000000   Number         0  gd32f30x_adc.o ABSOLUTE
    ..\\FW\\Source\\gd32f30x_dac.c           0x00000000   Number         0  gd32f30x_dac.o ABSOLUTE
    ..\\FW\\Source\\gd32f30x_dma.c           0x00000000   Number         0  gd32f30x_dma.o ABSOLUTE
    ..\\FW\\Source\\gd32f30x_exmc.c          0x00000000   Number         0  gd32f30x_exmc.o ABSOLUTE
    ..\\FW\\Source\\gd32f30x_exti.c          0x00000000   Number         0  gd32f30x_exti.o ABSOLUTE
    ..\\FW\\Source\\gd32f30x_fmc.c           0x00000000   Number         0  gd32f30x_fmc.o ABSOLUTE
    ..\\FW\\Source\\gd32f30x_gpio.c          0x00000000   Number         0  gd32f30x_gpio.o ABSOLUTE
    ..\\FW\\Source\\gd32f30x_misc.c          0x00000000   Number         0  gd32f30x_misc.o ABSOLUTE
    ..\\FW\\Source\\gd32f30x_rcu.c           0x00000000   Number         0  gd32f30x_rcu.o ABSOLUTE
    ..\\FW\\Source\\gd32f30x_sdio.c          0x00000000   Number         0  gd32f30x_sdio.o ABSOLUTE
    ..\\FW\\Source\\gd32f30x_timer.c         0x00000000   Number         0  gd32f30x_timer.o ABSOLUTE
    ..\\FW\\Source\\gd32f30x_usart.c         0x00000000   Number         0  gd32f30x_usart.o ABSOLUTE
    ..\\HW\\ADC\\ADC.c                       0x00000000   Number         0  adc.o ABSOLUTE
    ..\\HW\\UART0\\Queue.c                   0x00000000   Number         0  queue.o ABSOLUTE
    ..\\HW\\UART0\\UART0.c                   0x00000000   Number         0  uart0.o ABSOLUTE
    ..\\HW\\UART1\\UART1.c                   0x00000000   Number         0  uart1.o ABSOLUTE
    ..\\HW\\UART2\\UART2.c                   0x00000000   Number         0  uart2.o ABSOLUTE
    ..\\OS\\UCOSIII\\uCOS-BSP\\bsp.c         0x00000000   Number         0  bsp.o ABSOLUTE
    cdcmple.s                                0x00000000   Number         0  cdcmple.o ABSOLUTE
    cdrcmple.s                               0x00000000   Number         0  cdrcmple.o ABSOLUTE
    dc.s                                     0x00000000   Number         0  dc.o ABSOLUTE
    handlers.s                               0x00000000   Number         0  handlers.o ABSOLUTE
    init.s                                   0x00000000   Number         0  init.o ABSOLUTE
    RESET                                    0x08000000   Section      304  startup_gd32f30x_hd.o(RESET)
    .ARM.Collect$$$$00000000                 0x08000130   Section        0  entry.o(.ARM.Collect$$$$00000000)
    .ARM.Collect$$$$00000001                 0x08000130   Section        4  entry2.o(.ARM.Collect$$$$00000001)
    .ARM.Collect$$$$00000004                 0x08000134   Section        4  entry5.o(.ARM.Collect$$$$00000004)
    .ARM.Collect$$$$00000008                 0x08000138   Section        0  entry7b.o(.ARM.Collect$$$$00000008)
    .ARM.Collect$$$$0000000A                 0x08000138   Section        0  entry8b.o(.ARM.Collect$$$$0000000A)
    .ARM.Collect$$$$0000000B                 0x08000138   Section        8  entry9a.o(.ARM.Collect$$$$0000000B)
    .ARM.Collect$$$$0000000D                 0x08000140   Section        0  entry10a.o(.ARM.Collect$$$$0000000D)
    .ARM.Collect$$$$0000000F                 0x08000140   Section        0  entry11a.o(.ARM.Collect$$$$0000000F)
    .ARM.Collect$$$$00002712                 0x08000140   Section        4  entry2.o(.ARM.Collect$$$$00002712)
    __lit__00000000                          0x08000140   Data           4  entry2.o(.ARM.Collect$$$$00002712)
    .text                                    0x08000144   Section       76  startup_gd32f30x_hd.o(.text)
    $v0                                      0x08000144   Number         0  startup_gd32f30x_hd.o(.text)
    .text                                    0x08000190   Section       52  cpu_a.o(.text)
    $v0                                      0x08000190   Number         0  cpu_a.o(.text)
    .text                                    0x080001c4   Section        0  uldiv.o(.text)
    .text                                    0x08000226   Section        0  memcpya.o(.text)
    .text                                    0x0800024a   Section        0  memseta.o(.text)
    .text                                    0x0800026e   Section        0  dadd.o(.text)
    .text                                    0x080003bc   Section        0  dmul.o(.text)
    .text                                    0x080004a0   Section        0  ddiv.o(.text)
    .text                                    0x0800057e   Section        0  dflti.o(.text)
    .text                                    0x080005a0   Section        0  dfixi.o(.text)
    .text                                    0x080005de   Section        0  f2d.o(.text)
    .text                                    0x08000604   Section       48  cdcmple.o(.text)
    .text                                    0x08000634   Section       48  cdrcmple.o(.text)
    .text                                    0x08000664   Section        0  d2f.o(.text)
    .text                                    0x0800069c   Section        0  uidiv.o(.text)
    .text                                    0x080006c8   Section        0  llshl.o(.text)
    .text                                    0x080006e6   Section        0  llushr.o(.text)
    .text                                    0x08000706   Section        0  llsshr.o(.text)
    .text                                    0x0800072a   Section        0  iusefp.o(.text)
    .text                                    0x0800072a   Section        0  fepilogue.o(.text)
    .text                                    0x08000798   Section        0  depilogue.o(.text)
    .text                                    0x08000852   Section        0  dfixul.o(.text)
    .text                                    0x08000884   Section       36  init.o(.text)
    .text                                    0x080008a8   Section        0  __dczerorl2.o(.text)
    CODE                                     0x08000900   Section      268  os_cpu_a.o(CODE)
    $v0                                      0x08000900   Number         0  os_cpu_a.o(CODE)
    i.ADtoPre                                0x08000a0c   Section        0  nibp.o(i.ADtoPre)
    ADtoPre                                  0x08000a0d   Thumb Code    30  nibp.o(i.ADtoPre)
    i.BSP_CPU_ClkFreq                        0x08000a34   Section        0  bsp.o(i.BSP_CPU_ClkFreq)
    i.BSP_Tick_Init                          0x08000a40   Section        0  bsp.o(i.BSP_Tick_Init)
    i.BusFault_Handler                       0x08000a5c   Section        0  gd32f30x_it.o(i.BusFault_Handler)
    i.CPU_Init                               0x08000a60   Section        0  cpu_core.o(i.CPU_Init)
    i.CPU_NameClr                            0x08000a6c   Section        0  cpu_core.o(i.CPU_NameClr)
    i.CPU_NameInit                           0x08000a9c   Section        0  cpu_core.o(i.CPU_NameInit)
    CPU_NameInit                             0x08000a9d   Thumb Code     8  cpu_core.o(i.CPU_NameInit)
    i.CPU_SW_Exception                       0x08000aa4   Section        0  cpu_core.o(i.CPU_SW_Exception)
    i.CPU_TS_Init                            0x08000aa8   Section        0  cpu_core.o(i.CPU_TS_Init)
    CPU_TS_Init                              0x08000aa9   Thumb Code    14  cpu_core.o(i.CPU_TS_Init)
    i.CPU_TS_TmrFreqSet                      0x08000abc   Section        0  cpu_core.o(i.CPU_TS_TmrFreqSet)
    i.CPU_TS_TmrInit                         0x08000ac8   Section        0  bsp.o(i.CPU_TS_TmrInit)
    i.CPU_TS_TmrRd                           0x08000afc   Section        0  bsp.o(i.CPU_TS_TmrRd)
    i.CalcPolynomial                         0x08000b08   Section        0  polynomialfit.o(i.CalcPolynomial)
    i.ConfigADC0                             0x08000bd0   Section        0  adc.o(i.ConfigADC0)
    ConfigADC0                               0x08000bd1   Thumb Code   274  adc.o(i.ConfigADC0)
    i.ConfigCSGPIO                           0x08000cf4   Section        0  spo2_hw_cfg.o(i.ConfigCSGPIO)
    ConfigCSGPIO                             0x08000cf5   Thumb Code    52  spo2_hw_cfg.o(i.ConfigCSGPIO)
    i.ConfigDACGPIO                          0x08000d2c   Section        0  spo2_hw_cfg.o(i.ConfigDACGPIO)
    ConfigDACGPIO                            0x08000d2d   Thumb Code    66  spo2_hw_cfg.o(i.ConfigDACGPIO)
    i.ConfigDMA0CH0ForADC0                   0x08000d74   Section        0  adc.o(i.ConfigDMA0CH0ForADC0)
    ConfigDMA0CH0ForADC0                     0x08000d75   Thumb Code   104  adc.o(i.ConfigDMA0CH0ForADC0)
    i.ConfigECGGPIO                          0x08000de8   Section        0  ecg.o(i.ConfigECGGPIO)
    ConfigECGGPIO                            0x08000de9   Thumb Code    48  ecg.o(i.ConfigECGGPIO)
    i.ConfigLEDGPIO                          0x08000e1c   Section        0  led.o(i.ConfigLEDGPIO)
    ConfigLEDGPIO                            0x08000e1d   Thumb Code    60  led.o(i.ConfigLEDGPIO)
    i.ConfigNIBPGPIO                         0x08000e5c   Section        0  nibp_hw_cfg.o(i.ConfigNIBPGPIO)
    ConfigNIBPGPIO                           0x08000e5d   Thumb Code   138  nibp_hw_cfg.o(i.ConfigNIBPGPIO)
    i.ConfigNVIC                             0x08000ef0   Section        0  nvic.o(i.ConfigNVIC)
    ConfigNVIC                               0x08000ef1   Thumb Code    12  nvic.o(i.ConfigNVIC)
    i.ConfigSw1Gpio                          0x08000efc   Section        0  nibp.o(i.ConfigSw1Gpio)
    ConfigSw1Gpio                            0x08000efd   Thumb Code    26  nibp.o(i.ConfigSw1Gpio)
    i.ConfigSw21EXTI                         0x08000f1c   Section        0  nibp.o(i.ConfigSw21EXTI)
    ConfigSw21EXTI                           0x08000f1d   Thumb Code    48  nibp.o(i.ConfigSw21EXTI)
    i.ConfigTimer3                           0x08000f4c   Section        0  spo2_hw_cfg.o(i.ConfigTimer3)
    ConfigTimer3                             0x08000f4d   Thumb Code    76  spo2_hw_cfg.o(i.ConfigTimer3)
    i.ConfigUART                             0x08000f9c   Section        0  uart0.o(i.ConfigUART)
    ConfigUART                               0x08000f9d   Thumb Code   146  uart0.o(i.ConfigUART)
    i.ConfigUART                             0x0800103c   Section        0  uart1.o(i.ConfigUART)
    ConfigUART                               0x0800103d   Thumb Code   142  uart1.o(i.ConfigUART)
    i.ConfigUART                             0x080010d8   Section        0  uart2.o(i.ConfigUART)
    ConfigUART                               0x080010d9   Thumb Code   146  uart2.o(i.ConfigUART)
    i.CreatIRR_Filter_str                    0x08001178   Section        0  filter.o(i.CreatIRR_Filter_str)
    i.DeQueue                                0x0800119e   Section        0  queue.o(i.DeQueue)
    i.DebugMon_Handler                       0x080011e2   Section        0  gd32f30x_it.o(i.DebugMon_Handler)
    i.ECG_ProbeTask                          0x080011e4   Section        0  ecg.o(i.ECG_ProbeTask)
    ECG_ProbeTask                            0x080011e5   Thumb Code   112  ecg.o(i.ECG_ProbeTask)
    i.ECG_SamplTask                          0x08001280   Section        0  ecg.o(i.ECG_SamplTask)
    ECG_SamplTask                            0x08001281   Thumb Code   444  ecg.o(i.ECG_SamplTask)
    i.EXTI10_15_IRQHandler                   0x080014ac   Section        0  nibp.o(i.EXTI10_15_IRQHandler)
    i.EnQueue                                0x0800158c   Section        0  queue.o(i.EnQueue)
    i.FindFirstMaxInPolynomial               0x080015d4   Section        0  polynomialfit.o(i.FindFirstMaxInPolynomial)
    i.FindMajority                           0x080016fc   Section        0  calculate.o(i.FindMajority)
    i.FindMax                                0x0800176c   Section        0  nibp.o(i.FindMax)
    FindMax                                  0x0800176d   Thumb Code    14  nibp.o(i.FindMax)
    i.FindMax                                0x0800177a   Section        0  calculate.o(i.FindMax)
    i.FindMin                                0x08001788   Section        0  nibp.o(i.FindMin)
    FindMin                                  0x08001789   Thumb Code    14  nibp.o(i.FindMin)
    i.FindMin                                0x08001796   Section        0  calculate.o(i.FindMin)
    i.FindPeriod_by_Peak                     0x080017a4   Section        0  calculate.o(i.FindPeriod_by_Peak)
    i.GetCuff                                0x08001810   Section        0  adc.o(i.GetCuff)
    i.GetEcg                                 0x0800181c   Section        0  adc.o(i.GetEcg)
    i.GetPulse                               0x08001828   Section        0  adc.o(i.GetPulse)
    i.GetSPO2                                0x08001834   Section        0  adc.o(i.GetSPO2)
    i.GetSPO2_IRData                         0x08001840   Section        0  spo2_hw_cfg.o(i.GetSPO2_IRData)
    i.GetSPO2_REDData                        0x0800184c   Section        0  spo2_hw_cfg.o(i.GetSPO2_REDData)
    i.HardFault_Handler                      0x08001858   Section        0  gd32f30x_it.o(i.HardFault_Handler)
    i.IIR_Filter                             0x0800185c   Section        0  filter.o(i.IIR_Filter)
    i.IR_AdjTask                             0x08001900   Section        0  spo2.o(i.IR_AdjTask)
    IR_AdjTask                               0x08001901   Thumb Code   174  spo2.o(i.IR_AdjTask)
    i.IR_OFF                                 0x080019d8   Section        0  spo2_hw_cfg.o(i.IR_OFF)
    IR_OFF                                   0x080019d9   Thumb Code    12  spo2_hw_cfg.o(i.IR_OFF)
    i.IR_ON                                  0x080019e8   Section        0  spo2_hw_cfg.o(i.IR_ON)
    IR_ON                                    0x080019e9   Thumb Code    12  spo2_hw_cfg.o(i.IR_ON)
    i.InitADC                                0x080019f8   Section        0  adc.o(i.InitADC)
    i.InitECG                                0x08001a04   Section        0  ecg.o(i.InitECG)
    i.InitHardware                           0x08001b2c   Section        0  main.o(i.InitHardware)
    InitHardware                             0x08001b2d   Thumb Code    36  main.o(i.InitHardware)
    i.InitIRR_Filter_str                     0x08001b50   Section        0  filter.o(i.InitIRR_Filter_str)
    i.InitLED                                0x08001b80   Section        0  led.o(i.InitLED)
    i.InitNIBP                               0x08001c60   Section        0  nibp.o(i.InitNIBP)
    i.InitNIBP_HW_CFG                        0x08001da8   Section        0  nibp_hw_cfg.o(i.InitNIBP_HW_CFG)
    i.InitNVIC                               0x08001db0   Section        0  nvic.o(i.InitNVIC)
    i.InitQueue                              0x08001db8   Section        0  queue.o(i.InitQueue)
    i.InitSPO2                               0x08001ddc   Section        0  spo2.o(i.InitSPO2)
    i.InitSPO2_HW_CFG                        0x08001f10   Section        0  spo2_hw_cfg.o(i.InitSPO2_HW_CFG)
    i.InitSoftware                           0x08001f26   Section        0  main.o(i.InitSoftware)
    InitSoftware                             0x08001f27   Thumb Code    24  main.o(i.InitSoftware)
    i.InitSprintf                            0x08001f40   Section        0  sprintf.o(i.InitSprintf)
    i.InitUART0                              0x080020ac   Section        0  uart0.o(i.InitUART0)
    i.InitUART1                              0x080020bc   Section        0  uart1.o(i.InitUART1)
    i.InitUART2                              0x080020cc   Section        0  uart2.o(i.InitUART2)
    i.InitUARTBuf                            0x080020dc   Section        0  uart0.o(i.InitUARTBuf)
    InitUARTBuf                              0x080020dd   Thumb Code    46  uart0.o(i.InitUARTBuf)
    i.InitUARTBuf                            0x0800211c   Section        0  uart1.o(i.InitUARTBuf)
    InitUARTBuf                              0x0800211d   Thumb Code    46  uart1.o(i.InitUARTBuf)
    i.InitUARTBuf                            0x0800215c   Section        0  uart2.o(i.InitUARTBuf)
    InitUARTBuf                              0x0800215d   Thumb Code    46  uart2.o(i.InitUARTBuf)
    i.LEDTask                                0x0800219c   Section        0  led.o(i.LEDTask)
    LEDTask                                  0x0800219d   Thumb Code    82  led.o(i.LEDTask)
    i.Math_Init                              0x080021f4   Section        0  lib_math.o(i.Math_Init)
    i.Math_RandSetSeed                       0x08002200   Section        0  lib_math.o(i.Math_RandSetSeed)
    i.MemManage_Handler                      0x0800222c   Section        0  gd32f30x_it.o(i.MemManage_Handler)
    i.Mem_Clr                                0x08002230   Section        0  lib_mem.o(i.Mem_Clr)
    i.Mem_Init                               0x08002244   Section        0  lib_mem.o(i.Mem_Init)
    i.Mem_SegCreate                          0x08002290   Section        0  lib_mem.o(i.Mem_SegCreate)
    i.Mem_SegCreateCritical                  0x080022dc   Section        0  lib_mem.o(i.Mem_SegCreateCritical)
    Mem_SegCreateCritical                    0x080022dd   Thumb Code    28  lib_mem.o(i.Mem_SegCreateCritical)
    i.Mem_Set                                0x080022fc   Section        0  lib_mem.o(i.Mem_Set)
    i.NIBP_MeasureTask                       0x08002350   Section        0  nibp.o(i.NIBP_MeasureTask)
    NIBP_MeasureTask                         0x08002351   Thumb Code  1236  nibp.o(i.NIBP_MeasureTask)
    i.NIBP_PreMonitorTask                    0x08002824   Section        0  nibp.o(i.NIBP_PreMonitorTask)
    NIBP_PreMonitorTask                      0x08002825   Thumb Code    90  nibp.o(i.NIBP_PreMonitorTask)
    i.NIBP_StarTask                          0x0800288c   Section        0  nibp.o(i.NIBP_StarTask)
    NIBP_StarTask                            0x0800288d   Thumb Code   300  nibp.o(i.NIBP_StarTask)
    i.NMI_Handler                            0x08002a50   Section        0  gd32f30x_it.o(i.NMI_Handler)
    i.OSCfg_Init                             0x08002a52   Section        0  os_cfg_app.o(i.OSCfg_Init)
    i.OSIdleTaskHook                         0x08002a54   Section        0  os_cpu_c.o(i.OSIdleTaskHook)
    i.OSInit                                 0x08002a68   Section        0  os_core.o(i.OSInit)
    i.OSInitHook                             0x08002bcc   Section        0  os_cpu_c.o(i.OSInitHook)
    i.OSIntExit                              0x08002bf4   Section        0  os_core.o(i.OSIntExit)
    i.OSMutexCreate                          0x08002cd0   Section        0  os_mutex.o(i.OSMutexCreate)
    i.OSMutexPend                            0x08002d40   Section        0  os_mutex.o(i.OSMutexPend)
    i.OSMutexPost                            0x08002f10   Section        0  os_mutex.o(i.OSMutexPost)
    i.OSQCreate                              0x0800309c   Section        0  os_q.o(i.OSQCreate)
    i.OSQPend                                0x08003118   Section        0  os_q.o(i.OSQPend)
    i.OSQPost                                0x080032d0   Section        0  os_q.o(i.OSQPost)
    i.OSSched                                0x08003364   Section        0  os_core.o(i.OSSched)
    i.OSSchedLock                            0x08003408   Section        0  os_core.o(i.OSSchedLock)
    i.OSSchedUnlock                          0x08003468   Section        0  os_core.o(i.OSSchedUnlock)
    i.OSStart                                0x080034e8   Section        0  os_core.o(i.OSStart)
    i.OSStatReset                            0x08003550   Section        0  os_stat.o(i.OSStatReset)
    i.OSStatTaskCPUUsageInit                 0x08003678   Section        0  os_stat.o(i.OSStatTaskCPUUsageInit)
    i.OSStatTaskHook                         0x08003768   Section        0  os_cpu_c.o(i.OSStatTaskHook)
    i.OSTaskCreate                           0x0800377c   Section        0  os_task.o(i.OSTaskCreate)
    i.OSTaskCreateHook                       0x0800390c   Section        0  os_cpu_c.o(i.OSTaskCreateHook)
    i.OSTaskDel                              0x08003924   Section        0  os_task.o(i.OSTaskDel)
    i.OSTaskDelHook                          0x08003aac   Section        0  os_cpu_c.o(i.OSTaskDelHook)
    i.OSTaskResume                           0x08003ac4   Section        0  os_task.o(i.OSTaskResume)
    i.OSTaskReturnHook                       0x08003b18   Section        0  os_cpu_c.o(i.OSTaskReturnHook)
    i.OSTaskSemPend                          0x08003b30   Section        0  os_task.o(i.OSTaskSemPend)
    i.OSTaskSemPost                          0x08003cf8   Section        0  os_task.o(i.OSTaskSemPost)
    i.OSTaskStkChk                           0x08003d38   Section        0  os_task.o(i.OSTaskStkChk)
    i.OSTaskStkInit                          0x08003df8   Section        0  os_cpu_c.o(i.OSTaskStkInit)
    i.OSTaskSuspend                          0x080040bc   Section        0  os_task.o(i.OSTaskSuspend)
    i.OSTaskSwHook                           0x080040e0   Section        0  os_cpu_c.o(i.OSTaskSwHook)
    i.OSTimeDly                              0x08004198   Section        0  os_time.o(i.OSTimeDly)
    i.OSTimeDlyHMSM                          0x0800423c   Section        0  os_time.o(i.OSTimeDlyHMSM)
    i.OSTimeTick                             0x080043c8   Section        0  os_time.o(i.OSTimeTick)
    i.OSTimeTickHook                         0x0800440c   Section        0  os_cpu_c.o(i.OSTimeTickHook)
    i.OS_CPU_SysTickHandler                  0x08004420   Section        0  os_cpu_c.o(i.OS_CPU_SysTickHandler)
    i.OS_CPU_SysTickInit                     0x08004458   Section        0  os_cpu_c.o(i.OS_CPU_SysTickInit)
    i.OS_Dbg_Init                            0x08004488   Section        0  os_dbg.o(i.OS_Dbg_Init)
    i.OS_FlagInit                            0x08004630   Section        0  os_flag.o(i.OS_FlagInit)
    i.OS_IdleTask                            0x08004648   Section        0  os_core.o(i.OS_IdleTask)
    i.OS_IdleTaskInit                        0x0800468c   Section        0  os_core.o(i.OS_IdleTaskInit)
    i.OS_MemInit                             0x080046fc   Section        0  os_mem.o(i.OS_MemInit)
    i.OS_MsgPoolInit                         0x08004714   Section        0  os_msg.o(i.OS_MsgPoolInit)
    i.OS_MsgQFreeAll                         0x08004790   Section        0  os_msg.o(i.OS_MsgQFreeAll)
    i.OS_MsgQGet                             0x080047d4   Section        0  os_msg.o(i.OS_MsgQGet)
    i.OS_MsgQInit                            0x0800483c   Section        0  os_msg.o(i.OS_MsgQInit)
    i.OS_MsgQPut                             0x0800484c   Section        0  os_msg.o(i.OS_MsgQPut)
    i.OS_MutexDbgListAdd                     0x08004950   Section        0  os_mutex.o(i.OS_MutexDbgListAdd)
    i.OS_MutexGrpAdd                         0x08004980   Section        0  os_mutex.o(i.OS_MutexGrpAdd)
    i.OS_MutexGrpPostAll                     0x08004988   Section        0  os_mutex.o(i.OS_MutexGrpPostAll)
    i.OS_MutexGrpPrioFindHighest             0x080049e8   Section        0  os_mutex.o(i.OS_MutexGrpPrioFindHighest)
    i.OS_MutexGrpRemove                      0x08004a14   Section        0  os_mutex.o(i.OS_MutexGrpRemove)
    i.OS_MutexInit                           0x08004a30   Section        0  os_mutex.o(i.OS_MutexInit)
    i.OS_Pend                                0x08004a48   Section        0  os_core.o(i.OS_Pend)
    i.OS_PendDataInit                        0x08004ab0   Section        0  os_core.o(i.OS_PendDataInit)
    i.OS_PendDbgNameAdd                      0x08004ad8   Section        0  os_core.o(i.OS_PendDbgNameAdd)
    i.OS_PendDbgNameRemove                   0x08004b34   Section        0  os_core.o(i.OS_PendDbgNameRemove)
    i.OS_PendListChangePrio                  0x08004b58   Section        0  os_core.o(i.OS_PendListChangePrio)
    i.OS_PendListInit                        0x08004b92   Section        0  os_core.o(i.OS_PendListInit)
    i.OS_PendListInsertPrio                  0x08004b9c   Section        0  os_core.o(i.OS_PendListInsertPrio)
    i.OS_PendListRemove                      0x08004c02   Section        0  os_core.o(i.OS_PendListRemove)
    i.OS_PendListRemove1                     0x08004c36   Section        0  os_core.o(i.OS_PendListRemove1)
    i.OS_Post                                0x08004c78   Section        0  os_core.o(i.OS_Post)
    i.OS_Post1                               0x08004d4e   Section        0  os_core.o(i.OS_Post1)
    i.OS_PrioGetHighest                      0x08004d7c   Section        0  os_prio.o(i.OS_PrioGetHighest)
    i.OS_PrioInit                            0x08004da4   Section        0  os_prio.o(i.OS_PrioInit)
    i.OS_PrioInsert                          0x08004dbc   Section        0  os_prio.o(i.OS_PrioInsert)
    i.OS_PrioRemove                          0x08004de0   Section        0  os_prio.o(i.OS_PrioRemove)
    i.OS_QDbgListAdd                         0x08004e04   Section        0  os_q.o(i.OS_QDbgListAdd)
    i.OS_QInit                               0x08004e34   Section        0  os_q.o(i.OS_QInit)
    i.OS_QPost                               0x08004e4c   Section        0  os_q.o(i.OS_QPost)
    i.OS_RdyListInit                         0x08004f0c   Section        0  os_core.o(i.OS_RdyListInit)
    i.OS_RdyListInsert                       0x08004f30   Section        0  os_core.o(i.OS_RdyListInsert)
    i.OS_RdyListInsertHead                   0x08004f5c   Section        0  os_core.o(i.OS_RdyListInsertHead)
    i.OS_RdyListInsertTail                   0x08004f9c   Section        0  os_core.o(i.OS_RdyListInsertTail)
    i.OS_RdyListRemove                       0x08004fd8   Section        0  os_core.o(i.OS_RdyListRemove)
    i.OS_SchedLockTimeMeasStart              0x08005034   Section        0  os_core.o(i.OS_SchedLockTimeMeasStart)
    i.OS_SchedLockTimeMeasStop               0x08005050   Section        0  os_core.o(i.OS_SchedLockTimeMeasStop)
    i.OS_SemInit                             0x0800508c   Section        0  os_sem.o(i.OS_SemInit)
    i.OS_StatTask                            0x080050a4   Section        0  os_stat.o(i.OS_StatTask)
    i.OS_StatTaskInit                        0x0800538c   Section        0  os_stat.o(i.OS_StatTaskInit)
    i.OS_TaskBlock                           0x08005458   Section        0  os_core.o(i.OS_TaskBlock)
    i.OS_TaskChangePrio                      0x08005484   Section        0  os_task.o(i.OS_TaskChangePrio)
    i.OS_TaskDbgListAdd                      0x08005570   Section        0  os_task.o(i.OS_TaskDbgListAdd)
    i.OS_TaskDbgListRemove                   0x080055a0   Section        0  os_task.o(i.OS_TaskDbgListRemove)
    i.OS_TaskInit                            0x080055e4   Section        0  os_task.o(i.OS_TaskInit)
    i.OS_TaskInitTCB                         0x08005604   Section        0  os_task.o(i.OS_TaskInitTCB)
    i.OS_TaskResume                          0x080056c0   Section        0  os_task.o(i.OS_TaskResume)
    i.OS_TaskReturn                          0x080057c0   Section        0  os_task.o(i.OS_TaskReturn)
    i.OS_TaskSemPost                         0x080057d8   Section        0  os_task.o(i.OS_TaskSemPost)
    i.OS_TaskSuspend                         0x0800599c   Section        0  os_task.o(i.OS_TaskSuspend)
    i.OS_TickListInsert                      0x08005ab4   Section        0  os_tick.o(i.OS_TickListInsert)
    i.OS_TickListInsertDly                   0x08005b3c   Section        0  os_tick.o(i.OS_TickListInsertDly)
    i.OS_TickListRemove                      0x08005bf8   Section        0  os_tick.o(i.OS_TickListRemove)
    i.OS_TickListResetPeak                   0x08005c50   Section        0  os_tick.o(i.OS_TickListResetPeak)
    i.OS_TickListUpdateDly                   0x08005c54   Section        0  os_tick.o(i.OS_TickListUpdateDly)
    OS_TickListUpdateDly                     0x08005c55   Thumb Code   146  os_tick.o(i.OS_TickListUpdateDly)
    i.OS_TickListUpdateTimeout               0x08005cec   Section        0  os_tick.o(i.OS_TickListUpdateTimeout)
    OS_TickListUpdateTimeout                 0x08005ced   Thumb Code   272  os_tick.o(i.OS_TickListUpdateTimeout)
    i.OS_TickTask                            0x08005e00   Section        0  os_tick.o(i.OS_TickTask)
    i.OS_TickTaskInit                        0x08005e64   Section        0  os_tick.o(i.OS_TickTaskInit)
    i.OS_TmrInit                             0x08005f2c   Section        0  os_tmr.o(i.OS_TmrInit)
    i.OS_TmrLock                             0x08006060   Section        0  os_tmr.o(i.OS_TmrLock)
    OS_TmrLock                               0x08006061   Thumb Code    20  os_tmr.o(i.OS_TmrLock)
    i.OS_TmrResetPeak                        0x08006078   Section        0  os_tmr.o(i.OS_TmrResetPeak)
    i.OS_TmrTask                             0x0800607c   Section        0  os_tmr.o(i.OS_TmrTask)
    i.OS_TmrUnlink                           0x08006110   Section        0  os_tmr.o(i.OS_TmrUnlink)
    i.OS_TmrUnlock                           0x08006154   Section        0  os_tmr.o(i.OS_TmrUnlock)
    OS_TmrUnlock                             0x08006155   Thumb Code    14  os_tmr.o(i.OS_TmrUnlock)
    i.PULSE_disable                          0x08006168   Section        0  nibp_hw_cfg.o(i.PULSE_disable)
    i.PULSE_enable                           0x0800617c   Section        0  nibp_hw_cfg.o(i.PULSE_enable)
    i.PUMU_OFF                               0x08006190   Section        0  nibp_hw_cfg.o(i.PUMU_OFF)
    i.PUMU_ON                                0x080061a0   Section        0  nibp_hw_cfg.o(i.PUMU_ON)
    i.Polynomia_y_to_x                       0x080061b0   Section        0  polynomialfit.o(i.Polynomia_y_to_x)
    i.PolynomialFit                          0x08006378   Section        0  polynomialfit.o(i.PolynomialFit)
    i.Printf_task                            0x080067b0   Section        0  sprintf.o(i.Printf_task)
    i.Protect_read                           0x080067e0   Section        0  nibp_hw_cfg.o(i.Protect_read)
    i.QueueEmpty                             0x080067f4   Section        0  queue.o(i.QueueEmpty)
    i.RED_AdjTask                            0x08006804   Section        0  spo2.o(i.RED_AdjTask)
    RED_AdjTask                              0x08006805   Thumb Code   172  spo2.o(i.RED_AdjTask)
    i.RED_OFF                                0x080068d8   Section        0  spo2_hw_cfg.o(i.RED_OFF)
    RED_OFF                                  0x080068d9   Thumb Code    12  spo2_hw_cfg.o(i.RED_OFF)
    i.RED_ON                                 0x080068e8   Section        0  spo2_hw_cfg.o(i.RED_ON)
    RED_ON                                   0x080068e9   Thumb Code    12  spo2_hw_cfg.o(i.RED_ON)
    i.ReadSendBuf                            0x080068f8   Section        0  uart0.o(i.ReadSendBuf)
    ReadSendBuf                              0x080068f9   Thumb Code    22  uart0.o(i.ReadSendBuf)
    i.ReadSendBuf                            0x08006914   Section        0  uart1.o(i.ReadSendBuf)
    ReadSendBuf                              0x08006915   Thumb Code    22  uart1.o(i.ReadSendBuf)
    i.ReadSendBuf                            0x08006930   Section        0  uart2.o(i.ReadSendBuf)
    ReadSendBuf                              0x08006931   Thumb Code    22  uart2.o(i.ReadSendBuf)
    i.ReadUART2                              0x0800694c   Section        0  uart2.o(i.ReadUART2)
    i.SPO2_ProbeTask                         0x08006968   Section        0  spo2.o(i.SPO2_ProbeTask)
    SPO2_ProbeTask                           0x08006969   Thumb Code   244  spo2.o(i.SPO2_ProbeTask)
    i.SPO2_SamplTask                         0x08006aa4   Section        0  spo2.o(i.SPO2_SamplTask)
    SPO2_SamplTask                           0x08006aa5   Thumb Code   728  spo2.o(i.SPO2_SamplTask)
    i.SVC_Handler                            0x08006dfc   Section        0  gd32f30x_it.o(i.SVC_Handler)
    i.SetIr_DA_Val                           0x08006e00   Section        0  spo2_hw_cfg.o(i.SetIr_DA_Val)
    i.SetRed_DA_Val                          0x08006e0c   Section        0  spo2_hw_cfg.o(i.SetRed_DA_Val)
    i.StartTask                              0x08006e18   Section        0  main.o(i.StartTask)
    i.SystemInit                             0x08006e70   Section        0  system_gd32f30x.o(i.SystemInit)
    i.TIMER3_IRQHandler                      0x08006ec0   Section        0  spo2_hw_cfg.o(i.TIMER3_IRQHandler)
    i.USART0_IRQHandler                      0x08006f78   Section        0  uart0.o(i.USART0_IRQHandler)
    i.USART1_IRQHandler                      0x0800702c   Section        0  uart1.o(i.USART1_IRQHandler)
    i.USART2_IRQHandler                      0x080070e0   Section        0  uart2.o(i.USART2_IRQHandler)
    i.UsageFault_Handler                     0x08007198   Section        0  gd32f30x_it.o(i.UsageFault_Handler)
    i.VALVE_F_CLOSE                          0x0800719c   Section        0  nibp_hw_cfg.o(i.VALVE_F_CLOSE)
    i.VALVE_F_OPEN                           0x080071ac   Section        0  nibp_hw_cfg.o(i.VALVE_F_OPEN)
    i.VALVE_S_CLOSE                          0x080071bc   Section        0  nibp_hw_cfg.o(i.VALVE_S_CLOSE)
    i.VALVE_S_OPEN                           0x080071cc   Section        0  nibp_hw_cfg.o(i.VALVE_S_OPEN)
    i.WriteReceiveBuf                        0x080071dc   Section        0  uart0.o(i.WriteReceiveBuf)
    WriteReceiveBuf                          0x080071dd   Thumb Code    20  uart0.o(i.WriteReceiveBuf)
    i.WriteReceiveBuf                        0x080071f4   Section        0  uart1.o(i.WriteReceiveBuf)
    WriteReceiveBuf                          0x080071f5   Thumb Code    20  uart1.o(i.WriteReceiveBuf)
    i.WriteReceiveBuf                        0x0800720c   Section        0  uart2.o(i.WriteReceiveBuf)
    WriteReceiveBuf                          0x0800720d   Thumb Code    20  uart2.o(i.WriteReceiveBuf)
    i.__0printf                              0x08007224   Section        0  printfa.o(i.__0printf)
    i.__0sprintf                             0x08007244   Section        0  printfa.o(i.__0sprintf)
    i.__scatterload_copy                     0x0800726c   Section       14  handlers.o(i.__scatterload_copy)
    i.__scatterload_null                     0x0800727a   Section        2  handlers.o(i.__scatterload_null)
    i.__scatterload_zeroinit                 0x0800727c   Section       14  handlers.o(i.__scatterload_zeroinit)
    i._fp_digits                             0x0800728c   Section        0  printfa.o(i._fp_digits)
    _fp_digits                               0x0800728d   Thumb Code   366  printfa.o(i._fp_digits)
    i._printf_core                           0x08007410   Section        0  printfa.o(i._printf_core)
    _printf_core                             0x08007411   Thumb Code  1744  printfa.o(i._printf_core)
    i._printf_post_padding                   0x08007aec   Section        0  printfa.o(i._printf_post_padding)
    _printf_post_padding                     0x08007aed   Thumb Code    36  printfa.o(i._printf_post_padding)
    i._printf_pre_padding                    0x08007b10   Section        0  printfa.o(i._printf_pre_padding)
    _printf_pre_padding                      0x08007b11   Thumb Code    46  printfa.o(i._printf_pre_padding)
    i._sputc                                 0x08007b3e   Section        0  printfa.o(i._sputc)
    _sputc                                   0x08007b3f   Thumb Code    10  printfa.o(i._sputc)
    i.adc_calibration_enable                 0x08007b48   Section        0  gd32f30x_adc.o(i.adc_calibration_enable)
    i.adc_channel_length_config              0x08007b72   Section        0  gd32f30x_adc.o(i.adc_channel_length_config)
    i.adc_data_alignment_config              0x08007bb8   Section        0  gd32f30x_adc.o(i.adc_data_alignment_config)
    i.adc_deinit                             0x08007bd0   Section        0  gd32f30x_adc.o(i.adc_deinit)
    i.adc_dma_mode_enable                    0x08007c28   Section        0  gd32f30x_adc.o(i.adc_dma_mode_enable)
    i.adc_enable                             0x08007c32   Section        0  gd32f30x_adc.o(i.adc_enable)
    i.adc_external_trigger_config            0x08007c44   Section        0  gd32f30x_adc.o(i.adc_external_trigger_config)
    i.adc_external_trigger_source_config     0x08007c82   Section        0  gd32f30x_adc.o(i.adc_external_trigger_source_config)
    i.adc_mode_config                        0x08007cb4   Section        0  gd32f30x_adc.o(i.adc_mode_config)
    i.adc_oversample_mode_disable            0x08007cd0   Section        0  gd32f30x_adc.o(i.adc_oversample_mode_disable)
    i.adc_regular_channel_config             0x08007cde   Section        0  gd32f30x_adc.o(i.adc_regular_channel_config)
    i.adc_resolution_config                  0x08007d8a   Section        0  gd32f30x_adc.o(i.adc_resolution_config)
    i.adc_software_trigger_enable            0x08007d9e   Section        0  gd32f30x_adc.o(i.adc_software_trigger_enable)
    i.adc_special_function_config            0x08007dbc   Section        0  gd32f30x_adc.o(i.adc_special_function_config)
    i.dac_concurrent_disable                 0x08007e18   Section        0  gd32f30x_dac.o(i.dac_concurrent_disable)
    i.dac_data_set                           0x08007e30   Section        0  gd32f30x_dac.o(i.dac_data_set)
    i.dac_deinit                             0x08007e88   Section        0  gd32f30x_dac.o(i.dac_deinit)
    i.dac_enable                             0x08007e9c   Section        0  gd32f30x_dac.o(i.dac_enable)
    i.dac_output_buffer_enable               0x08007ec0   Section        0  gd32f30x_dac.o(i.dac_output_buffer_enable)
    i.dac_trigger_disable                    0x08007ee4   Section        0  gd32f30x_dac.o(i.dac_trigger_disable)
    i.dac_wave_mode_config                   0x08007f08   Section        0  gd32f30x_dac.o(i.dac_wave_mode_config)
    i.dma_channel_enable                     0x08007f3c   Section        0  gd32f30x_dma.o(i.dma_channel_enable)
    i.dma_circulation_enable                 0x08007f6e   Section        0  gd32f30x_dma.o(i.dma_circulation_enable)
    i.dma_deinit                             0x08007fa0   Section        0  gd32f30x_dma.o(i.dma_deinit)
    i.dma_init                               0x08008010   Section        0  gd32f30x_dma.o(i.dma_init)
    i.dma_memory_to_memory_disable           0x0800813e   Section        0  gd32f30x_dma.o(i.dma_memory_to_memory_disable)
    i.dma_periph_and_channel_check           0x08008170   Section        0  gd32f30x_dma.o(i.dma_periph_and_channel_check)
    dma_periph_and_channel_check             0x08008171   Thumb Code    18  gd32f30x_dma.o(i.dma_periph_and_channel_check)
    i.exti_init                              0x08008188   Section        0  gd32f30x_exti.o(i.exti_init)
    i.exti_interrupt_flag_clear              0x08008240   Section        0  gd32f30x_exti.o(i.exti_interrupt_flag_clear)
    i.exti_interrupt_flag_get                0x0800824c   Section        0  gd32f30x_exti.o(i.exti_interrupt_flag_get)
    i.fputc                                  0x08008270   Section        0  uart2.o(i.fputc)
    i.gpio_bit_reset                         0x08008294   Section        0  gd32f30x_gpio.o(i.gpio_bit_reset)
    i.gpio_bit_set                           0x08008298   Section        0  gd32f30x_gpio.o(i.gpio_bit_set)
    i.gpio_bit_write                         0x0800829c   Section        0  gd32f30x_gpio.o(i.gpio_bit_write)
    i.gpio_exti_source_select                0x080082a8   Section        0  gd32f30x_gpio.o(i.gpio_exti_source_select)
    i.gpio_init                              0x08008340   Section        0  gd32f30x_gpio.o(i.gpio_init)
    i.gpio_input_bit_get                     0x080083fc   Section        0  gd32f30x_gpio.o(i.gpio_input_bit_get)
    i.gpio_output_bit_get                    0x0800840c   Section        0  gd32f30x_gpio.o(i.gpio_output_bit_get)
    i.main                                   0x0800841c   Section        0  main.o(i.main)
    i.malloc                                 0x08008508   Section        0  malloc.o(i.malloc)
    i.nvic_irq_enable                        0x08008574   Section        0  gd32f30x_misc.o(i.nvic_irq_enable)
    i.nvic_priority_group_set                0x08008638   Section        0  gd32f30x_misc.o(i.nvic_priority_group_set)
    i.printf_s_aus                           0x0800864c   Section        0  sprintf.o(i.printf_s_aus)
    i.rcu_adc_clock_config                   0x08008668   Section        0  gd32f30x_rcu.o(i.rcu_adc_clock_config)
    i.rcu_clock_freq_get                     0x080086d4   Section        0  gd32f30x_rcu.o(i.rcu_clock_freq_get)
    i.rcu_periph_clock_enable                0x0800882c   Section        0  gd32f30x_rcu.o(i.rcu_periph_clock_enable)
    i.rcu_periph_reset_disable               0x0800884c   Section        0  gd32f30x_rcu.o(i.rcu_periph_reset_disable)
    i.rcu_periph_reset_enable                0x0800886c   Section        0  gd32f30x_rcu.o(i.rcu_periph_reset_enable)
    i.system_clock_120m_hxtal                0x0800888c   Section        0  system_gd32f30x.o(i.system_clock_120m_hxtal)
    system_clock_120m_hxtal                  0x0800888d   Thumb Code   256  system_gd32f30x.o(i.system_clock_120m_hxtal)
    i.system_clock_config                    0x0800899c   Section        0  system_gd32f30x.o(i.system_clock_config)
    system_clock_config                      0x0800899d   Thumb Code     8  system_gd32f30x.o(i.system_clock_config)
    i.timer_deinit                           0x080089a4   Section        0  gd32f30x_timer.o(i.timer_deinit)
    i.timer_enable                           0x08008a80   Section        0  gd32f30x_timer.o(i.timer_enable)
    i.timer_init                             0x08008a8c   Section        0  gd32f30x_timer.o(i.timer_init)
    i.timer_interrupt_enable                 0x08008b24   Section        0  gd32f30x_timer.o(i.timer_interrupt_enable)
    i.timer_interrupt_flag_clear             0x08008b2c   Section        0  gd32f30x_timer.o(i.timer_interrupt_flag_clear)
    i.timer_interrupt_flag_get               0x08008b32   Section        0  gd32f30x_timer.o(i.timer_interrupt_flag_get)
    i.timer_struct_para_init                 0x08008b4a   Section        0  gd32f30x_timer.o(i.timer_struct_para_init)
    i.usart_baudrate_set                     0x08008b60   Section        0  gd32f30x_usart.o(i.usart_baudrate_set)
    i.usart_data_receive                     0x08008bf0   Section        0  gd32f30x_usart.o(i.usart_data_receive)
    i.usart_data_transmit                    0x08008bfa   Section        0  gd32f30x_usart.o(i.usart_data_transmit)
    i.usart_deinit                           0x08008c04   Section        0  gd32f30x_usart.o(i.usart_deinit)
    i.usart_enable                           0x08008c94   Section        0  gd32f30x_usart.o(i.usart_enable)
    i.usart_flag_get                         0x08008c9e   Section        0  gd32f30x_usart.o(i.usart_flag_get)
    i.usart_interrupt_disable                0x08008cbc   Section        0  gd32f30x_usart.o(i.usart_interrupt_disable)
    i.usart_interrupt_enable                 0x08008cd6   Section        0  gd32f30x_usart.o(i.usart_interrupt_enable)
    i.usart_interrupt_flag_clear             0x08008cf0   Section        0  gd32f30x_usart.o(i.usart_interrupt_flag_clear)
    i.usart_interrupt_flag_get               0x08008d0a   Section        0  gd32f30x_usart.o(i.usart_interrupt_flag_get)
    i.usart_parity_config                    0x08008d42   Section        0  gd32f30x_usart.o(i.usart_parity_config)
    i.usart_receive_config                   0x08008d52   Section        0  gd32f30x_usart.o(i.usart_receive_config)
    i.usart_stop_bit_set                     0x08008d62   Section        0  gd32f30x_usart.o(i.usart_stop_bit_set)
    i.usart_transmit_config                  0x08008d72   Section        0  gd32f30x_usart.o(i.usart_transmit_config)
    i.usart_word_length_set                  0x08008d82   Section        0  gd32f30x_usart.o(i.usart_word_length_set)
    .constdata                               0x08008d94   Section       28  led.o(.constdata)
    .constdata                               0x08008db0   Section      172  filter.o(.constdata)
    .constdata                               0x08008e5c   Section       56  ecg.o(.constdata)
    .constdata                               0x08008e94   Section      112  spo2.o(.constdata)
    .constdata                               0x08008f04   Section       56  nibp.o(.constdata)
    .constdata                               0x08008f3c   Section       28  sprintf.o(.constdata)
    .constdata                               0x08008f58   Section      148  os_cfg_app.o(.constdata)
    .constdata                               0x08008fec   Section      364  os_dbg.o(.constdata)
    .conststring                             0x08009158   Section        8  led.o(.conststring)
    .conststring                             0x08009160   Section       30  ecg.o(.conststring)
    .conststring                             0x08009180   Section       55  spo2.o(.conststring)
    .conststring                             0x080091b8   Section       36  nibp.o(.conststring)
    .conststring                             0x080091dc   Section       12  sprintf.o(.conststring)
    .data                                    0x20000000   Section       24  ecg.o(.data)
    s_i                                      0x20000008   Data           4  ecg.o(.data)
    i                                        0x2000000c   Data           4  ecg.o(.data)
    j                                        0x20000010   Data           4  ecg.o(.data)
    max                                      0x20000014   Data           2  ecg.o(.data)
    min                                      0x20000016   Data           2  ecg.o(.data)
    .data                                    0x20000018   Section       12  spo2_hw_cfg.o(.data)
    ir_DA_Val                                0x20000018   Data           2  spo2_hw_cfg.o(.data)
    red_DA_Val                               0x2000001a   Data           2  spo2_hw_cfg.o(.data)
    SPO2_IRData                              0x2000001c   Data           2  spo2_hw_cfg.o(.data)
    SPO2_REDData                             0x2000001e   Data           2  spo2_hw_cfg.o(.data)
    s_cnt                                    0x20000020   Data           4  spo2_hw_cfg.o(.data)
    .data                                    0x20000024   Section       56  spo2.o(.data)
    R_arr                                    0x20000024   Data          40  spo2.o(.data)
    SPO2_ProbeStatus                         0x2000004c   Data           1  spo2.o(.data)
    REDAdjTask_runStatus                     0x2000004d   Data           1  spo2.o(.data)
    IRAdjTask_runStatus                      0x2000004e   Data           1  spo2.o(.data)
    REDAdj_Suc                               0x2000004f   Data           1  spo2.o(.data)
    IRAdj_Suc                                0x20000050   Data           1  spo2.o(.data)
    SamplTask_runStatus                      0x20000051   Data           1  spo2.o(.data)
    red_DA_Val                               0x20000052   Data           2  spo2.o(.data)
    ir_DA_Val                                0x20000054   Data           2  spo2.o(.data)
    s_RedCnt                                 0x20000056   Data           1  spo2.o(.data)
    s_IrCnt                                  0x20000057   Data           1  spo2.o(.data)
    i                                        0x20000058   Data           4  spo2.o(.data)
    .data                                    0x20000060   Section      250  nibp.o(.data)
    NIBP_I                                   0x20000060   Data           1  nibp.o(.data)
    NIBP_cnt                                 0x20000064   Data           4  nibp.o(.data)
    NIBP_flag                                0x20000068   Data           1  nibp.o(.data)
    compare_arr                              0x20000070   Data          48  nibp.o(.data)
    pro_arr                                  0x200000a0   Data          96  nibp.o(.data)
    Pressure_arr_ther_M                      0x20000118   Data          22  nibp.o(.data)
    Pressure_arr_ther_H                      0x2000012e   Data          22  nibp.o(.data)
    Pressure_arr_ther                        0x20000144   Data           4  nibp.o(.data)
    MeasureTask_RunStatus                    0x20000154   Data           1  nibp.o(.data)
    s_cnt                                    0x20000155   Data           1  nibp.o(.data)
    max                                      0x20000156   Data           2  nibp.o(.data)
    min                                      0x20000158   Data           2  nibp.o(.data)
    .data                                    0x2000015a   Section        1  uart0.o(.data)
    s_iUARTTxSts                             0x2000015a   Data           1  uart0.o(.data)
    .data                                    0x2000015b   Section        1  uart1.o(.data)
    s_iUARTTxSts                             0x2000015b   Data           1  uart1.o(.data)
    .data                                    0x2000015c   Section        1  uart2.o(.data)
    s_iUARTTxSts                             0x2000015c   Data           1  uart2.o(.data)
    .data                                    0x20000160   Section        4  cpu_core.o(.data)
    .data                                    0x20000164   Section        4  lib_math.o(.data)
    .data                                    0x20000168   Section        4  lib_mem.o(.data)
    .data                                    0x2000016c   Section        8  os_prio.o(.data)
    .data                                    0x20000174   Section      196  os_var.o(.data)
    .data                                    0x20000238   Section        4  os_cpu_c.o(.data)
    .data                                    0x2000023c   Section        4  stdout.o(.data)
    .data                                    0x20000240   Section        4  mvars.o(.data)
    .data                                    0x20000244   Section        4  mvars.o(.data)
    .bss                                     0x20000248   Section     2240  main.o(.bss)
    s_arrStartStack                          0x20000308   Data        2048  main.o(.bss)
    .bss                                     0x20000b08   Section      704  led.o(.bss)
    s_arrLEDStack                            0x20000bc8   Data         512  led.o(.bss)
    .bss                                     0x20000dc8   Section     4496  ecg.o(.bss)
    ECG_50hzNotch                            0x20000dc8   Data          20  ecg.o(.bss)
    ECG_IIR80hzLp                            0x20000ddc   Data          20  ecg.o(.bss)
    s_arrECG_SamplStack                      0x20000eb0   Data        2048  ecg.o(.bss)
    s_arrECG_ProbeStack                      0x20001770   Data        1024  ecg.o(.bss)
    ECG_Sampl_arr                            0x20001b70   Data        1000  ecg.o(.bss)
    .bss                                     0x20001f58   Section     9464  spo2.o(.bss)
    SPO2_IR_f125_15_20hzlp                   0x20001f58   Data          20  spo2.o(.bss)
    SPO2_RED_f125_15_20hzlp                  0x20001f6c   Data          20  spo2.o(.bss)
    s_arrSPO2_ProbeStack                     0x20002040   Data         512  spo2.o(.bss)
    s_arrRED_AdjStack                        0x20002300   Data        1024  spo2.o(.bss)
    s_arrIR_AdjStack                         0x200027c0   Data        1024  spo2.o(.bss)
    s_arrSPO2_SamplStack                     0x20002c80   Data        4096  spo2.o(.bss)
    ir_data_arr                              0x20003c80   Data        1000  spo2.o(.bss)
    red_data_arr                             0x20004068   Data        1000  spo2.o(.bss)
    .bss                                     0x20004450   Section    12256  nibp.o(.bss)
    coeff_arr                                0x20004450   Data          48  nibp.o(.bss)
    Pre_PP                                   0x20004480   Data          88  nibp.o(.bss)
    cuff_arr                                 0x200044d8   Data          88  nibp.o(.bss)
    s_arrNIBP_PreMonitorStack                0x200045f0   Data        1024  nibp.o(.bss)
    s_arrNIBP_StarStack                      0x20004ab0   Data        1024  nibp.o(.bss)
    s_arrNIBP_MeasureStack                   0x20004f70   Data        1024  nibp.o(.bss)
    s_arrNIBP_PulseSamplStack                0x20005430   Data        8192  nibp.o(.bss)
    .bss                                     0x20007430   Section      760  polynomialfit.o(.bss)
    .bss                                     0x20007728   Section     4384  sprintf.o(.bss)
    s_arrPrintfStack                         0x200077e8   Data        4096  sprintf.o(.bss)
    .bss                                     0x20008848   Section      224  uart0.o(.bss)
    s_structUARTSendCirQue                   0x20008848   Data          12  uart0.o(.bss)
    s_structUARTRecCirQue                    0x20008854   Data          12  uart0.o(.bss)
    s_arrSendBuf                             0x20008860   Data         100  uart0.o(.bss)
    s_arrRecBuf                              0x200088c4   Data         100  uart0.o(.bss)
    .bss                                     0x20008928   Section       10  adc.o(.bss)
    s_arrADCBuf                              0x20008928   Data          10  adc.o(.bss)
    .bss                                     0x20008934   Section      224  uart1.o(.bss)
    s_structUARTSendCirQue                   0x20008934   Data          12  uart1.o(.bss)
    s_structUARTRecCirQue                    0x20008940   Data          12  uart1.o(.bss)
    s_arrSendBuf                             0x2000894c   Data         100  uart1.o(.bss)
    s_arrRecBuf                              0x200089b0   Data         100  uart1.o(.bss)
    .bss                                     0x20008a14   Section      224  uart2.o(.bss)
    s_structUARTSendCirQue                   0x20008a14   Data          12  uart2.o(.bss)
    s_structUARTRecCirQue                    0x20008a20   Data          12  uart2.o(.bss)
    s_arrSendBuf                             0x20008a2c   Data         100  uart2.o(.bss)
    s_arrRecBuf                              0x20008a90   Data         100  uart2.o(.bss)
    .bss                                     0x20008af4   Section       16  cpu_core.o(.bss)
    .bss                                     0x20008b04   Section     3092  lib_mem.o(.bss)
    .bss                                     0x20009718   Section     3456  os_cfg_app.o(.bss)
    .bss                                     0x2000a498   Section     1596  os_var.o(.bss)
    HEAP                                     0x2000aad8   Section     1024  startup_gd32f30x_hd.o(HEAP)
    STACK                                    0x2000aed8   Section     2048  startup_gd32f30x_hd.o(STACK)

    Global Symbols

    Symbol Name                              Value     Ov Type        Size  Object(Section)

    BuildAttributes$$THM_ISAv4$E$P$D$K$B$S$7EM$VFPi3$EXTD16$VFPS$VFMA$PE$A:L22UL41UL21$X:L11$S22US41US21$IEEE1$IW$USESV6$~STKCKD$USESV7$~SHL$OTIME$ROPI$EBA8$MICROLIB$REQ8$PRES8$EABIv2 0x00000000   Number         0  anon$$obj.o ABSOLUTE
    __ARM_use_no_argv                        0x00000000   Number         0  main.o ABSOLUTE
    _printf_a                                0x00000000   Number         0  stubs.o ABSOLUTE
    _printf_c                                0x00000000   Number         0  stubs.o ABSOLUTE
    _printf_charcount                        0x00000000   Number         0  stubs.o ABSOLUTE
    _printf_d                                0x00000000   Number         0  stubs.o ABSOLUTE
    _printf_e                                0x00000000   Number         0  stubs.o ABSOLUTE
    _printf_f                                0x00000000   Number         0  stubs.o ABSOLUTE
    _printf_flags                            0x00000000   Number         0  stubs.o ABSOLUTE
    _printf_fp_dec                           0x00000000   Number         0  stubs.o ABSOLUTE
    _printf_fp_hex                           0x00000000   Number         0  stubs.o ABSOLUTE
    _printf_g                                0x00000000   Number         0  stubs.o ABSOLUTE
    _printf_i                                0x00000000   Number         0  stubs.o ABSOLUTE
    _printf_int_dec                          0x00000000   Number         0  stubs.o ABSOLUTE
    _printf_l                                0x00000000   Number         0  stubs.o ABSOLUTE
    _printf_lc                               0x00000000   Number         0  stubs.o ABSOLUTE
    _printf_ll                               0x00000000   Number         0  stubs.o ABSOLUTE
    _printf_lld                              0x00000000   Number         0  stubs.o ABSOLUTE
    _printf_lli                              0x00000000   Number         0  stubs.o ABSOLUTE
    _printf_llo                              0x00000000   Number         0  stubs.o ABSOLUTE
    _printf_llu                              0x00000000   Number         0  stubs.o ABSOLUTE
    _printf_llx                              0x00000000   Number         0  stubs.o ABSOLUTE
    _printf_longlong_dec                     0x00000000   Number         0  stubs.o ABSOLUTE
    _printf_longlong_hex                     0x00000000   Number         0  stubs.o ABSOLUTE
    _printf_longlong_oct                     0x00000000   Number         0  stubs.o ABSOLUTE
    _printf_ls                               0x00000000   Number         0  stubs.o ABSOLUTE
    _printf_mbtowc                           0x00000000   Number         0  stubs.o ABSOLUTE
    _printf_n                                0x00000000   Number         0  stubs.o ABSOLUTE
    _printf_o                                0x00000000   Number         0  stubs.o ABSOLUTE
    _printf_p                                0x00000000   Number         0  stubs.o ABSOLUTE
    _printf_percent                          0x00000000   Number         0  stubs.o ABSOLUTE
    _printf_pre_padding                      0x00000000   Number         0  stubs.o ABSOLUTE
    _printf_return_value                     0x00000000   Number         0  stubs.o ABSOLUTE
    _printf_s                                0x00000000   Number         0  stubs.o ABSOLUTE
    _printf_sizespec                         0x00000000   Number         0  stubs.o ABSOLUTE
    _printf_str                              0x00000000   Number         0  stubs.o ABSOLUTE
    _printf_truncate_signed                  0x00000000   Number         0  stubs.o ABSOLUTE
    _printf_truncate_unsigned                0x00000000   Number         0  stubs.o ABSOLUTE
    _printf_u                                0x00000000   Number         0  stubs.o ABSOLUTE
    _printf_wc                               0x00000000   Number         0  stubs.o ABSOLUTE
    _printf_wctomb                           0x00000000   Number         0  stubs.o ABSOLUTE
    _printf_widthprec                        0x00000000   Number         0  stubs.o ABSOLUTE
    _printf_x                                0x00000000   Number         0  stubs.o ABSOLUTE
    __cpp_initialize__aeabi_                  - Undefined Weak Reference
    __cxa_finalize                            - Undefined Weak Reference
    _clock_init                               - Undefined Weak Reference
    _microlib_exit                            - Undefined Weak Reference
    __Vectors_Size                           0x00000130   Number         0  startup_gd32f30x_hd.o ABSOLUTE
    __Vectors                                0x08000000   Data           4  startup_gd32f30x_hd.o(RESET)
    __Vectors_End                            0x08000130   Data           0  startup_gd32f30x_hd.o(RESET)
    __main                                   0x08000131   Thumb Code     0  entry.o(.ARM.Collect$$$$00000000)
    _main_stk                                0x08000131   Thumb Code     0  entry2.o(.ARM.Collect$$$$00000001)
    _main_scatterload                        0x08000135   Thumb Code     0  entry5.o(.ARM.Collect$$$$00000004)
    __main_after_scatterload                 0x08000139   Thumb Code     0  entry5.o(.ARM.Collect$$$$00000004)
    _main_clock                              0x08000139   Thumb Code     0  entry7b.o(.ARM.Collect$$$$00000008)
    _main_cpp_init                           0x08000139   Thumb Code     0  entry8b.o(.ARM.Collect$$$$0000000A)
    _main_init                               0x08000139   Thumb Code     0  entry9a.o(.ARM.Collect$$$$0000000B)
    __rt_final_cpp                           0x08000141   Thumb Code     0  entry10a.o(.ARM.Collect$$$$0000000D)
    __rt_final_exit                          0x08000141   Thumb Code     0  entry11a.o(.ARM.Collect$$$$0000000F)
    Reset_Handler                            0x08000145   Thumb Code    40  startup_gd32f30x_hd.o(.text)
    ADC0_1_IRQHandler                        0x0800017f   Thumb Code     0  startup_gd32f30x_hd.o(.text)
    ADC2_IRQHandler                          0x0800017f   Thumb Code     0  startup_gd32f30x_hd.o(.text)
    CAN0_EWMC_IRQHandler                     0x0800017f   Thumb Code     0  startup_gd32f30x_hd.o(.text)
    CAN0_RX1_IRQHandler                      0x0800017f   Thumb Code     0  startup_gd32f30x_hd.o(.text)
    DMA0_Channel0_IRQHandler                 0x0800017f   Thumb Code     0  startup_gd32f30x_hd.o(.text)
    DMA0_Channel1_IRQHandler                 0x0800017f   Thumb Code     0  startup_gd32f30x_hd.o(.text)
    DMA0_Channel2_IRQHandler                 0x0800017f   Thumb Code     0  startup_gd32f30x_hd.o(.text)
    DMA0_Channel3_IRQHandler                 0x0800017f   Thumb Code     0  startup_gd32f30x_hd.o(.text)
    DMA0_Channel4_IRQHandler                 0x0800017f   Thumb Code     0  startup_gd32f30x_hd.o(.text)
    DMA0_Channel5_IRQHandler                 0x0800017f   Thumb Code     0  startup_gd32f30x_hd.o(.text)
    DMA0_Channel6_IRQHandler                 0x0800017f   Thumb Code     0  startup_gd32f30x_hd.o(.text)
    DMA1_Channel0_IRQHandler                 0x0800017f   Thumb Code     0  startup_gd32f30x_hd.o(.text)
    DMA1_Channel1_IRQHandler                 0x0800017f   Thumb Code     0  startup_gd32f30x_hd.o(.text)
    DMA1_Channel2_IRQHandler                 0x0800017f   Thumb Code     0  startup_gd32f30x_hd.o(.text)
    DMA1_Channel3_4_IRQHandler               0x0800017f   Thumb Code     0  startup_gd32f30x_hd.o(.text)
    EXMC_IRQHandler                          0x0800017f   Thumb Code     0  startup_gd32f30x_hd.o(.text)
    EXTI0_IRQHandler                         0x0800017f   Thumb Code     0  startup_gd32f30x_hd.o(.text)
    EXTI1_IRQHandler                         0x0800017f   Thumb Code     0  startup_gd32f30x_hd.o(.text)
    EXTI2_IRQHandler                         0x0800017f   Thumb Code     0  startup_gd32f30x_hd.o(.text)
    EXTI3_IRQHandler                         0x0800017f   Thumb Code     0  startup_gd32f30x_hd.o(.text)
    EXTI4_IRQHandler                         0x0800017f   Thumb Code     0  startup_gd32f30x_hd.o(.text)
    EXTI5_9_IRQHandler                       0x0800017f   Thumb Code     0  startup_gd32f30x_hd.o(.text)
    FMC_IRQHandler                           0x0800017f   Thumb Code     0  startup_gd32f30x_hd.o(.text)
    I2C0_ER_IRQHandler                       0x0800017f   Thumb Code     0  startup_gd32f30x_hd.o(.text)
    I2C0_EV_IRQHandler                       0x0800017f   Thumb Code     0  startup_gd32f30x_hd.o(.text)
    I2C1_ER_IRQHandler                       0x0800017f   Thumb Code     0  startup_gd32f30x_hd.o(.text)
    I2C1_EV_IRQHandler                       0x0800017f   Thumb Code     0  startup_gd32f30x_hd.o(.text)
    LVD_IRQHandler                           0x0800017f   Thumb Code     0  startup_gd32f30x_hd.o(.text)
    RCU_CTC_IRQHandler                       0x0800017f   Thumb Code     0  startup_gd32f30x_hd.o(.text)
    RTC_Alarm_IRQHandler                     0x0800017f   Thumb Code     0  startup_gd32f30x_hd.o(.text)
    RTC_IRQHandler                           0x0800017f   Thumb Code     0  startup_gd32f30x_hd.o(.text)
    SDIO_IRQHandler                          0x0800017f   Thumb Code     0  startup_gd32f30x_hd.o(.text)
    SPI0_IRQHandler                          0x0800017f   Thumb Code     0  startup_gd32f30x_hd.o(.text)
    SPI1_IRQHandler                          0x0800017f   Thumb Code     0  startup_gd32f30x_hd.o(.text)
    SPI2_IRQHandler                          0x0800017f   Thumb Code     0  startup_gd32f30x_hd.o(.text)
    TAMPER_IRQHandler                        0x0800017f   Thumb Code     0  startup_gd32f30x_hd.o(.text)
    TIMER0_BRK_IRQHandler                    0x0800017f   Thumb Code     0  startup_gd32f30x_hd.o(.text)
    TIMER0_Channel_IRQHandler                0x0800017f   Thumb Code     0  startup_gd32f30x_hd.o(.text)
    TIMER0_TRG_CMT_IRQHandler                0x0800017f   Thumb Code     0  startup_gd32f30x_hd.o(.text)
    TIMER0_UP_IRQHandler                     0x0800017f   Thumb Code     0  startup_gd32f30x_hd.o(.text)
    TIMER1_IRQHandler                        0x0800017f   Thumb Code     0  startup_gd32f30x_hd.o(.text)
    TIMER2_IRQHandler                        0x0800017f   Thumb Code     0  startup_gd32f30x_hd.o(.text)
    TIMER4_IRQHandler                        0x0800017f   Thumb Code     0  startup_gd32f30x_hd.o(.text)
    TIMER5_IRQHandler                        0x0800017f   Thumb Code     0  startup_gd32f30x_hd.o(.text)
    TIMER6_IRQHandler                        0x0800017f   Thumb Code     0  startup_gd32f30x_hd.o(.text)
    TIMER7_BRK_IRQHandler                    0x0800017f   Thumb Code     0  startup_gd32f30x_hd.o(.text)
    TIMER7_Channel_IRQHandler                0x0800017f   Thumb Code     0  startup_gd32f30x_hd.o(.text)
    TIMER7_TRG_CMT_IRQHandler                0x0800017f   Thumb Code     0  startup_gd32f30x_hd.o(.text)
    TIMER7_UP_IRQHandler                     0x0800017f   Thumb Code     0  startup_gd32f30x_hd.o(.text)
    UART3_IRQHandler                         0x0800017f   Thumb Code     0  startup_gd32f30x_hd.o(.text)
    UART4_IRQHandler                         0x0800017f   Thumb Code     0  startup_gd32f30x_hd.o(.text)
    USBD_HP_CAN0_TX_IRQHandler               0x0800017f   Thumb Code     0  startup_gd32f30x_hd.o(.text)
    USBD_LP_CAN0_RX0_IRQHandler              0x0800017f   Thumb Code     0  startup_gd32f30x_hd.o(.text)
    USBD_WKUP_IRQHandler                     0x0800017f   Thumb Code     0  startup_gd32f30x_hd.o(.text)
    WWDGT_IRQHandler                         0x0800017f   Thumb Code     0  startup_gd32f30x_hd.o(.text)
    CPU_IntDis                               0x08000191   Thumb Code     0  cpu_a.o(.text)
    CPU_IntEn                                0x08000195   Thumb Code     0  cpu_a.o(.text)
    CPU_SR_Save                              0x08000199   Thumb Code     0  cpu_a.o(.text)
    CPU_SR_Restore                           0x080001a1   Thumb Code     0  cpu_a.o(.text)
    CPU_WaitForInt                           0x080001a7   Thumb Code     0  cpu_a.o(.text)
    CPU_WaitForExcept                        0x080001ab   Thumb Code     0  cpu_a.o(.text)
    CPU_CntLeadZeros                         0x080001af   Thumb Code     0  cpu_a.o(.text)
    CPU_CntTrailZeros                        0x080001b5   Thumb Code     0  cpu_a.o(.text)
    CPU_RevBits                              0x080001bf   Thumb Code     0  cpu_a.o(.text)
    __aeabi_uldivmod                         0x080001c5   Thumb Code    98  uldiv.o(.text)
    __aeabi_memcpy                           0x08000227   Thumb Code    36  memcpya.o(.text)
    __aeabi_memcpy4                          0x08000227   Thumb Code     0  memcpya.o(.text)
    __aeabi_memcpy8                          0x08000227   Thumb Code     0  memcpya.o(.text)
    __aeabi_memset                           0x0800024b   Thumb Code    14  memseta.o(.text)
    __aeabi_memset4                          0x0800024b   Thumb Code     0  memseta.o(.text)
    __aeabi_memset8                          0x0800024b   Thumb Code     0  memseta.o(.text)
    __aeabi_memclr                           0x08000259   Thumb Code     4  memseta.o(.text)
    __aeabi_memclr4                          0x08000259   Thumb Code     0  memseta.o(.text)
    __aeabi_memclr8                          0x08000259   Thumb Code     0  memseta.o(.text)
    _memset$wrapper                          0x0800025d   Thumb Code    18  memseta.o(.text)
    __aeabi_dadd                             0x0800026f   Thumb Code   322  dadd.o(.text)
    __aeabi_dsub                             0x080003b1   Thumb Code     6  dadd.o(.text)
    __aeabi_drsub                            0x080003b7   Thumb Code     6  dadd.o(.text)
    __aeabi_dmul                             0x080003bd   Thumb Code   228  dmul.o(.text)
    __aeabi_ddiv                             0x080004a1   Thumb Code   222  ddiv.o(.text)
    __aeabi_i2d                              0x0800057f   Thumb Code    34  dflti.o(.text)
    __aeabi_d2iz                             0x080005a1   Thumb Code    62  dfixi.o(.text)
    __aeabi_f2d                              0x080005df   Thumb Code    38  f2d.o(.text)
    __aeabi_cdcmpeq                          0x08000605   Thumb Code     0  cdcmple.o(.text)
    __aeabi_cdcmple                          0x08000605   Thumb Code    48  cdcmple.o(.text)
    __aeabi_cdrcmple                         0x08000635   Thumb Code    48  cdrcmple.o(.text)
    __aeabi_d2f                              0x08000665   Thumb Code    56  d2f.o(.text)
    __aeabi_uidiv                            0x0800069d   Thumb Code     0  uidiv.o(.text)
    __aeabi_uidivmod                         0x0800069d   Thumb Code    44  uidiv.o(.text)
    __aeabi_llsl                             0x080006c9   Thumb Code    30  llshl.o(.text)
    _ll_shift_l                              0x080006c9   Thumb Code     0  llshl.o(.text)
    __aeabi_llsr                             0x080006e7   Thumb Code    32  llushr.o(.text)
    _ll_ushift_r                             0x080006e7   Thumb Code     0  llushr.o(.text)
    __aeabi_lasr                             0x08000707   Thumb Code    36  llsshr.o(.text)
    _ll_sshift_r                             0x08000707   Thumb Code     0  llsshr.o(.text)
    __I$use$fp                               0x0800072b   Thumb Code     0  iusefp.o(.text)
    _float_round                             0x0800072b   Thumb Code    18  fepilogue.o(.text)
    _float_epilogue                          0x0800073d   Thumb Code    92  fepilogue.o(.text)
    _double_round                            0x08000799   Thumb Code    30  depilogue.o(.text)
    _double_epilogue                         0x080007b7   Thumb Code   156  depilogue.o(.text)
    __aeabi_d2ulz                            0x08000853   Thumb Code    48  dfixul.o(.text)
    __scatterload                            0x08000885   Thumb Code    28  init.o(.text)
    __scatterload_rt2                        0x08000885   Thumb Code     0  init.o(.text)
    __decompress                             0x080008a9   Thumb Code     0  __dczerorl2.o(.text)
    __decompress1                            0x080008a9   Thumb Code    86  __dczerorl2.o(.text)
    OS_CPU_FP_Reg_Push                       0x08000901   Thumb Code     0  os_cpu_a.o(CODE)
    OS_CPU_FP_Reg_Pop                        0x0800091b   Thumb Code     0  os_cpu_a.o(CODE)
    OSStartHighRdy                           0x0800092d   Thumb Code     0  os_cpu_a.o(CODE)
    OSCtxSw                                  0x0800099d   Thumb Code     0  os_cpu_a.o(CODE)
    OSIntCtxSw                               0x080009a7   Thumb Code     0  os_cpu_a.o(CODE)
    OS_CPU_PendSVHandler                     0x080009b1   Thumb Code     0  os_cpu_a.o(CODE)
    BSP_CPU_ClkFreq                          0x08000a35   Thumb Code    10  bsp.o(i.BSP_CPU_ClkFreq)
    BSP_Tick_Init                            0x08000a41   Thumb Code    24  bsp.o(i.BSP_Tick_Init)
    BusFault_Handler                         0x08000a5d   Thumb Code     4  gd32f30x_it.o(i.BusFault_Handler)
    CPU_Init                                 0x08000a61   Thumb Code    12  cpu_core.o(i.CPU_Init)
    CPU_NameClr                              0x08000a6d   Thumb Code    42  cpu_core.o(i.CPU_NameClr)
    CPU_SW_Exception                         0x08000aa5   Thumb Code     4  cpu_core.o(i.CPU_SW_Exception)
    CPU_TS_TmrFreqSet                        0x08000abd   Thumb Code     6  cpu_core.o(i.CPU_TS_TmrFreqSet)
    CPU_TS_TmrInit                           0x08000ac9   Thumb Code    44  bsp.o(i.CPU_TS_TmrInit)
    CPU_TS_TmrRd                             0x08000afd   Thumb Code     6  bsp.o(i.CPU_TS_TmrRd)
    CalcPolynomial                           0x08000b09   Thumb Code   178  polynomialfit.o(i.CalcPolynomial)
    CreatIRR_Filter_str                      0x08001179   Thumb Code    38  filter.o(i.CreatIRR_Filter_str)
    DeQueue                                  0x0800119f   Thumb Code    68  queue.o(i.DeQueue)
    DebugMon_Handler                         0x080011e3   Thumb Code     2  gd32f30x_it.o(i.DebugMon_Handler)
    EXTI10_15_IRQHandler                     0x080014ad   Thumb Code   164  nibp.o(i.EXTI10_15_IRQHandler)
    EnQueue                                  0x0800158d   Thumb Code    72  queue.o(i.EnQueue)
    FindFirstMaxInPolynomial                 0x080015d5   Thumb Code   286  polynomialfit.o(i.FindFirstMaxInPolynomial)
    FindMajority                             0x080016fd   Thumb Code   112  calculate.o(i.FindMajority)
    FindMax                                  0x0800177b   Thumb Code    14  calculate.o(i.FindMax)
    FindMin                                  0x08001797   Thumb Code    14  calculate.o(i.FindMin)
    FindPeriod_by_Peak                       0x080017a5   Thumb Code   106  calculate.o(i.FindPeriod_by_Peak)
    GetCuff                                  0x08001811   Thumb Code     6  adc.o(i.GetCuff)
    GetEcg                                   0x0800181d   Thumb Code     6  adc.o(i.GetEcg)
    GetPulse                                 0x08001829   Thumb Code     6  adc.o(i.GetPulse)
    GetSPO2                                  0x08001835   Thumb Code     6  adc.o(i.GetSPO2)
    GetSPO2_IRData                           0x08001841   Thumb Code     6  spo2_hw_cfg.o(i.GetSPO2_IRData)
    GetSPO2_REDData                          0x0800184d   Thumb Code     6  spo2_hw_cfg.o(i.GetSPO2_REDData)
    HardFault_Handler                        0x08001859   Thumb Code     4  gd32f30x_it.o(i.HardFault_Handler)
    IIR_Filter                               0x0800185d   Thumb Code   160  filter.o(i.IIR_Filter)
    InitADC                                  0x080019f9   Thumb Code    12  adc.o(i.InitADC)
    InitECG                                  0x08001a05   Thumb Code   226  ecg.o(i.InitECG)
    InitIRR_Filter_str                       0x08001b51   Thumb Code    42  filter.o(i.InitIRR_Filter_str)
    InitLED                                  0x08001b81   Thumb Code   190  led.o(i.InitLED)
    InitNIBP                                 0x08001c61   Thumb Code   270  nibp.o(i.InitNIBP)
    InitNIBP_HW_CFG                          0x08001da9   Thumb Code     8  nibp_hw_cfg.o(i.InitNIBP_HW_CFG)
    InitNVIC                                 0x08001db1   Thumb Code     8  nvic.o(i.InitNVIC)
    InitQueue                                0x08001db9   Thumb Code    36  queue.o(i.InitQueue)
    InitSPO2                                 0x08001ddd   Thumb Code   242  spo2.o(i.InitSPO2)
    InitSPO2_HW_CFG                          0x08001f11   Thumb Code    22  spo2_hw_cfg.o(i.InitSPO2_HW_CFG)
    InitSprintf                              0x08001f41   Thumb Code   250  sprintf.o(i.InitSprintf)
    InitUART0                                0x080020ad   Thumb Code    16  uart0.o(i.InitUART0)
    InitUART1                                0x080020bd   Thumb Code    16  uart1.o(i.InitUART1)
    InitUART2                                0x080020cd   Thumb Code    16  uart2.o(i.InitUART2)
    Math_Init                                0x080021f5   Thumb Code    10  lib_math.o(i.Math_Init)
    Math_RandSetSeed                         0x08002201   Thumb Code    40  lib_math.o(i.Math_RandSetSeed)
    MemManage_Handler                        0x0800222d   Thumb Code     4  gd32f30x_it.o(i.MemManage_Handler)
    Mem_Clr                                  0x08002231   Thumb Code    18  lib_mem.o(i.Mem_Clr)
    Mem_Init                                 0x08002245   Thumb Code    54  lib_mem.o(i.Mem_Init)
    Mem_SegCreate                            0x08002291   Thumb Code    74  lib_mem.o(i.Mem_SegCreate)
    Mem_Set                                  0x080022fd   Thumb Code    84  lib_mem.o(i.Mem_Set)
    NMI_Handler                              0x08002a51   Thumb Code     2  gd32f30x_it.o(i.NMI_Handler)
    OSCfg_Init                               0x08002a53   Thumb Code     2  os_cfg_app.o(i.OSCfg_Init)
    OSIdleTaskHook                           0x08002a55   Thumb Code    16  os_cpu_c.o(i.OSIdleTaskHook)
    OSInit                                   0x08002a69   Thumb Code   270  os_core.o(i.OSInit)
    OSInitHook                               0x08002bcd   Thumb Code    28  os_cpu_c.o(i.OSInitHook)
    OSIntExit                                0x08002bf5   Thumb Code   188  os_core.o(i.OSIntExit)
    OSMutexCreate                            0x08002cd1   Thumb Code   102  os_mutex.o(i.OSMutexCreate)
    OSMutexPend                              0x08002d41   Thumb Code   450  os_mutex.o(i.OSMutexPend)
    OSMutexPost                              0x08002f11   Thumb Code   384  os_mutex.o(i.OSMutexPost)
    OSQCreate                                0x0800309d   Thumb Code   114  os_q.o(i.OSQCreate)
    OSQPend                                  0x08003119   Thumb Code   428  os_q.o(i.OSQPend)
    OSQPost                                  0x080032d1   Thumb Code   144  os_q.o(i.OSQPost)
    OSSched                                  0x08003365   Thumb Code   134  os_core.o(i.OSSched)
    OSSchedLock                              0x08003409   Thumb Code    88  os_core.o(i.OSSchedLock)
    OSSchedUnlock                            0x08003469   Thumb Code   120  os_core.o(i.OSSchedUnlock)
    OSStart                                  0x080034e9   Thumb Code    78  os_core.o(i.OSStart)
    OSStatReset                              0x08003551   Thumb Code   262  os_stat.o(i.OSStatReset)
    OSStatTaskCPUUsageInit                   0x08003679   Thumb Code   212  os_stat.o(i.OSStatTaskCPUUsageInit)
    OSStatTaskHook                           0x08003769   Thumb Code    16  os_cpu_c.o(i.OSStatTaskHook)
    OSTaskCreate                             0x0800377d   Thumb Code   382  os_task.o(i.OSTaskCreate)
    OSTaskCreateHook                         0x0800390d   Thumb Code    20  os_cpu_c.o(i.OSTaskCreateHook)
    OSTaskDel                                0x08003925   Thumb Code   380  os_task.o(i.OSTaskDel)
    OSTaskDelHook                            0x08003aad   Thumb Code    20  os_cpu_c.o(i.OSTaskDelHook)
    OSTaskResume                             0x08003ac5   Thumb Code    80  os_task.o(i.OSTaskResume)
    OSTaskReturnHook                         0x08003b19   Thumb Code    20  os_cpu_c.o(i.OSTaskReturnHook)
    OSTaskSemPend                            0x08003b31   Thumb Code   446  os_task.o(i.OSTaskSemPend)
    OSTaskSemPost                            0x08003cf9   Thumb Code    62  os_task.o(i.OSTaskSemPost)
    OSTaskStkChk                             0x08003d39   Thumb Code   188  os_task.o(i.OSTaskStkChk)
    OSTaskStkInit                            0x08003df9   Thumb Code   600  os_cpu_c.o(i.OSTaskStkInit)
    OSTaskSuspend                            0x080040bd   Thumb Code    32  os_task.o(i.OSTaskSuspend)
    OSTaskSwHook                             0x080040e1   Thumb Code   168  os_cpu_c.o(i.OSTaskSwHook)
    OSTimeDly                                0x08004199   Thumb Code   156  os_time.o(i.OSTimeDly)
    OSTimeDlyHMSM                            0x0800423d   Thumb Code   382  os_time.o(i.OSTimeDlyHMSM)
    OSTimeTick                               0x080043c9   Thumb Code    50  os_time.o(i.OSTimeTick)
    OSTimeTickHook                           0x0800440d   Thumb Code    16  os_cpu_c.o(i.OSTimeTickHook)
    OS_CPU_SysTickHandler                    0x08004421   Thumb Code    52  os_cpu_c.o(i.OS_CPU_SysTickHandler)
    OS_CPU_SysTickInit                       0x08004459   Thumb Code    44  os_cpu_c.o(i.OS_CPU_SysTickInit)
    OS_Dbg_Init                              0x08004489   Thumb Code   146  os_dbg.o(i.OS_Dbg_Init)
    OS_FlagInit                              0x08004631   Thumb Code    14  os_flag.o(i.OS_FlagInit)
    OS_IdleTask                              0x08004649   Thumb Code    58  os_core.o(i.OS_IdleTask)
    OS_IdleTaskInit                          0x0800468d   Thumb Code    66  os_core.o(i.OS_IdleTaskInit)
    OS_MemInit                               0x080046fd   Thumb Code    14  os_mem.o(i.OS_MemInit)
    OS_MsgPoolInit                           0x08004715   Thumb Code   110  os_msg.o(i.OS_MsgPoolInit)
    OS_MsgQFreeAll                           0x08004791   Thumb Code    62  os_msg.o(i.OS_MsgQFreeAll)
    OS_MsgQGet                               0x080047d5   Thumb Code    98  os_msg.o(i.OS_MsgQGet)
    OS_MsgQInit                              0x0800483d   Thumb Code    14  os_msg.o(i.OS_MsgQInit)
    OS_MsgQPut                               0x0800484d   Thumb Code   254  os_msg.o(i.OS_MsgQPut)
    OS_MutexDbgListAdd                       0x08004951   Thumb Code    38  os_mutex.o(i.OS_MutexDbgListAdd)
    OS_MutexGrpAdd                           0x08004981   Thumb Code     8  os_mutex.o(i.OS_MutexGrpAdd)
    OS_MutexGrpPostAll                       0x08004989   Thumb Code    96  os_mutex.o(i.OS_MutexGrpPostAll)
    OS_MutexGrpPrioFindHighest               0x080049e9   Thumb Code    44  os_mutex.o(i.OS_MutexGrpPrioFindHighest)
    OS_MutexGrpRemove                        0x08004a15   Thumb Code    28  os_mutex.o(i.OS_MutexGrpRemove)
    OS_MutexInit                             0x08004a31   Thumb Code    14  os_mutex.o(i.OS_MutexInit)
    OS_Pend                                  0x08004a49   Thumb Code   100  os_core.o(i.OS_Pend)
    OS_PendDataInit                          0x08004ab1   Thumb Code    40  os_core.o(i.OS_PendDataInit)
    OS_PendDbgNameAdd                        0x08004ad9   Thumb Code    66  os_core.o(i.OS_PendDbgNameAdd)
    OS_PendDbgNameRemove                     0x08004b35   Thumb Code    30  os_core.o(i.OS_PendDbgNameRemove)
    OS_PendListChangePrio                    0x08004b59   Thumb Code    58  os_core.o(i.OS_PendListChangePrio)
    OS_PendListInit                          0x08004b93   Thumb Code    10  os_core.o(i.OS_PendListInit)
    OS_PendListInsertPrio                    0x08004b9d   Thumb Code   102  os_core.o(i.OS_PendListInsertPrio)
    OS_PendListRemove                        0x08004c03   Thumb Code    52  os_core.o(i.OS_PendListRemove)
    OS_PendListRemove1                       0x08004c37   Thumb Code    66  os_core.o(i.OS_PendListRemove1)
    OS_Post                                  0x08004c79   Thumb Code   214  os_core.o(i.OS_Post)
    OS_Post1                                 0x08004d4f   Thumb Code    44  os_core.o(i.OS_Post1)
    OS_PrioGetHighest                        0x08004d7d   Thumb Code    36  os_prio.o(i.OS_PrioGetHighest)
    OS_PrioInit                              0x08004da5   Thumb Code    20  os_prio.o(i.OS_PrioInit)
    OS_PrioInsert                            0x08004dbd   Thumb Code    32  os_prio.o(i.OS_PrioInsert)
    OS_PrioRemove                            0x08004de1   Thumb Code    32  os_prio.o(i.OS_PrioRemove)
    OS_QDbgListAdd                           0x08004e05   Thumb Code    38  os_q.o(i.OS_QDbgListAdd)
    OS_QInit                                 0x08004e35   Thumb Code    14  os_q.o(i.OS_QInit)
    OS_QPost                                 0x08004e4d   Thumb Code   190  os_q.o(i.OS_QPost)
    OS_RdyListInit                           0x08004f0d   Thumb Code    32  os_core.o(i.OS_RdyListInit)
    OS_RdyListInsert                         0x08004f31   Thumb Code    40  os_core.o(i.OS_RdyListInsert)
    OS_RdyListInsertHead                     0x08004f5d   Thumb Code    58  os_core.o(i.OS_RdyListInsertHead)
    OS_RdyListInsertTail                     0x08004f9d   Thumb Code    56  os_core.o(i.OS_RdyListInsertTail)
    OS_RdyListRemove                         0x08004fd9   Thumb Code    86  os_core.o(i.OS_RdyListRemove)
    OS_SchedLockTimeMeasStart                0x08005035   Thumb Code    20  os_core.o(i.OS_SchedLockTimeMeasStart)
    OS_SchedLockTimeMeasStop                 0x08005051   Thumb Code    44  os_core.o(i.OS_SchedLockTimeMeasStop)
    OS_SemInit                               0x0800508d   Thumb Code    14  os_sem.o(i.OS_SemInit)
    OS_StatTask                              0x080050a5   Thumb Code   684  os_stat.o(i.OS_StatTask)
    OS_StatTaskInit                          0x0800538d   Thumb Code   136  os_stat.o(i.OS_StatTaskInit)
    OS_TaskBlock                             0x08005459   Thumb Code    40  os_core.o(i.OS_TaskBlock)
    OS_TaskChangePrio                        0x08005485   Thumb Code   232  os_task.o(i.OS_TaskChangePrio)
    OS_TaskDbgListAdd                        0x08005571   Thumb Code    42  os_task.o(i.OS_TaskDbgListAdd)
    OS_TaskDbgListRemove                     0x080055a1   Thumb Code    64  os_task.o(i.OS_TaskDbgListRemove)
    OS_TaskInit                              0x080055e5   Thumb Code    18  os_task.o(i.OS_TaskInit)
    OS_TaskInitTCB                           0x08005605   Thumb Code   176  os_task.o(i.OS_TaskInitTCB)
    OS_TaskResume                            0x080056c1   Thumb Code   256  os_task.o(i.OS_TaskResume)
    OS_TaskReturn                            0x080057c1   Thumb Code    20  os_task.o(i.OS_TaskReturn)
    OS_TaskSemPost                           0x080057d9   Thumb Code   448  os_task.o(i.OS_TaskSemPost)
    OS_TaskSuspend                           0x0800599d   Thumb Code   272  os_task.o(i.OS_TaskSuspend)
    OS_TickListInsert                        0x08005ab5   Thumb Code   134  os_tick.o(i.OS_TickListInsert)
    OS_TickListInsertDly                     0x08005b3d   Thumb Code   180  os_tick.o(i.OS_TickListInsertDly)
    OS_TickListRemove                        0x08005bf9   Thumb Code    88  os_tick.o(i.OS_TickListRemove)
    OS_TickListResetPeak                     0x08005c51   Thumb Code     2  os_tick.o(i.OS_TickListResetPeak)
    OS_TickTask                              0x08005e01   Thumb Code    90  os_tick.o(i.OS_TickTask)
    OS_TickTaskInit                          0x08005e65   Thumb Code   140  os_tick.o(i.OS_TickTaskInit)
    OS_TmrInit                               0x08005f2d   Thumb Code   200  os_tmr.o(i.OS_TmrInit)
    OS_TmrResetPeak                          0x08006079   Thumb Code     2  os_tmr.o(i.OS_TmrResetPeak)
    OS_TmrTask                               0x0800607d   Thumb Code   134  os_tmr.o(i.OS_TmrTask)
    OS_TmrUnlink                             0x08006111   Thumb Code    58  os_tmr.o(i.OS_TmrUnlink)
    PULSE_disable                            0x08006169   Thumb Code    14  nibp_hw_cfg.o(i.PULSE_disable)
    PULSE_enable                             0x0800617d   Thumb Code    14  nibp_hw_cfg.o(i.PULSE_enable)
    PUMU_OFF                                 0x08006191   Thumb Code    12  nibp_hw_cfg.o(i.PUMU_OFF)
    PUMU_ON                                  0x080061a1   Thumb Code    12  nibp_hw_cfg.o(i.PUMU_ON)
    Polynomia_y_to_x                         0x080061b1   Thumb Code   446  polynomialfit.o(i.Polynomia_y_to_x)
    PolynomialFit                            0x08006379   Thumb Code  1080  polynomialfit.o(i.PolynomialFit)
    Printf_task                              0x080067b1   Thumb Code    40  sprintf.o(i.Printf_task)
    Protect_read                             0x080067e1   Thumb Code    14  nibp_hw_cfg.o(i.Protect_read)
    QueueEmpty                               0x080067f5   Thumb Code    14  queue.o(i.QueueEmpty)
    ReadUART2                                0x0800694d   Thumb Code    24  uart2.o(i.ReadUART2)
    SVC_Handler                              0x08006dfd   Thumb Code     2  gd32f30x_it.o(i.SVC_Handler)
    SetIr_DA_Val                             0x08006e01   Thumb Code     6  spo2_hw_cfg.o(i.SetIr_DA_Val)
    SetRed_DA_Val                            0x08006e0d   Thumb Code     6  spo2_hw_cfg.o(i.SetRed_DA_Val)
    StartTask                                0x08006e19   Thumb Code    50  main.o(i.StartTask)
    SystemInit                               0x08006e71   Thumb Code    66  system_gd32f30x.o(i.SystemInit)
    TIMER3_IRQHandler                        0x08006ec1   Thumb Code   158  spo2_hw_cfg.o(i.TIMER3_IRQHandler)
    USART0_IRQHandler                        0x08006f79   Thumb Code   152  uart0.o(i.USART0_IRQHandler)
    USART1_IRQHandler                        0x0800702d   Thumb Code   152  uart1.o(i.USART1_IRQHandler)
    USART2_IRQHandler                        0x080070e1   Thumb Code   152  uart2.o(i.USART2_IRQHandler)
    UsageFault_Handler                       0x08007199   Thumb Code     4  gd32f30x_it.o(i.UsageFault_Handler)
    VALVE_F_CLOSE                            0x0800719d   Thumb Code    12  nibp_hw_cfg.o(i.VALVE_F_CLOSE)
    VALVE_F_OPEN                             0x080071ad   Thumb Code    12  nibp_hw_cfg.o(i.VALVE_F_OPEN)
    VALVE_S_CLOSE                            0x080071bd   Thumb Code    12  nibp_hw_cfg.o(i.VALVE_S_CLOSE)
    VALVE_S_OPEN                             0x080071cd   Thumb Code    12  nibp_hw_cfg.o(i.VALVE_S_OPEN)
    __0printf                                0x08007225   Thumb Code    22  printfa.o(i.__0printf)
    __1printf                                0x08007225   Thumb Code     0  printfa.o(i.__0printf)
    __2printf                                0x08007225   Thumb Code     0  printfa.o(i.__0printf)
    __c89printf                              0x08007225   Thumb Code     0  printfa.o(i.__0printf)
    printf                                   0x08007225   Thumb Code     0  printfa.o(i.__0printf)
    __0sprintf                               0x08007245   Thumb Code    34  printfa.o(i.__0sprintf)
    __1sprintf                               0x08007245   Thumb Code     0  printfa.o(i.__0sprintf)
    __2sprintf                               0x08007245   Thumb Code     0  printfa.o(i.__0sprintf)
    __c89sprintf                             0x08007245   Thumb Code     0  printfa.o(i.__0sprintf)
    sprintf                                  0x08007245   Thumb Code     0  printfa.o(i.__0sprintf)
    __scatterload_copy                       0x0800726d   Thumb Code    14  handlers.o(i.__scatterload_copy)
    __scatterload_null                       0x0800727b   Thumb Code     2  handlers.o(i.__scatterload_null)
    __scatterload_zeroinit                   0x0800727d   Thumb Code    14  handlers.o(i.__scatterload_zeroinit)
    adc_calibration_enable                   0x08007b49   Thumb Code    42  gd32f30x_adc.o(i.adc_calibration_enable)
    adc_channel_length_config                0x08007b73   Thumb Code    70  gd32f30x_adc.o(i.adc_channel_length_config)
    adc_data_alignment_config                0x08007bb9   Thumb Code    22  gd32f30x_adc.o(i.adc_data_alignment_config)
    adc_deinit                               0x08007bd1   Thumb Code    84  gd32f30x_adc.o(i.adc_deinit)
    adc_dma_mode_enable                      0x08007c29   Thumb Code    10  gd32f30x_adc.o(i.adc_dma_mode_enable)
    adc_enable                               0x08007c33   Thumb Code    18  gd32f30x_adc.o(i.adc_enable)
    adc_external_trigger_config              0x08007c45   Thumb Code    62  gd32f30x_adc.o(i.adc_external_trigger_config)
    adc_external_trigger_source_config       0x08007c83   Thumb Code    48  gd32f30x_adc.o(i.adc_external_trigger_source_config)
    adc_mode_config                          0x08007cb5   Thumb Code    22  gd32f30x_adc.o(i.adc_mode_config)
    adc_oversample_mode_disable              0x08007cd1   Thumb Code    14  gd32f30x_adc.o(i.adc_oversample_mode_disable)
    adc_regular_channel_config               0x08007cdf   Thumb Code   172  gd32f30x_adc.o(i.adc_regular_channel_config)
    adc_resolution_config                    0x08007d8b   Thumb Code    20  gd32f30x_adc.o(i.adc_resolution_config)
    adc_software_trigger_enable              0x08007d9f   Thumb Code    30  gd32f30x_adc.o(i.adc_software_trigger_enable)
    adc_special_function_config              0x08007dbd   Thumb Code    90  gd32f30x_adc.o(i.adc_special_function_config)
    dac_concurrent_disable                   0x08007e19   Thumb Code    18  gd32f30x_dac.o(i.dac_concurrent_disable)
    dac_data_set                             0x08007e31   Thumb Code    82  gd32f30x_dac.o(i.dac_data_set)
    dac_deinit                               0x08007e89   Thumb Code    20  gd32f30x_dac.o(i.dac_deinit)
    dac_enable                               0x08007e9d   Thumb Code    30  gd32f30x_dac.o(i.dac_enable)
    dac_output_buffer_enable                 0x08007ec1   Thumb Code    30  gd32f30x_dac.o(i.dac_output_buffer_enable)
    dac_trigger_disable                      0x08007ee5   Thumb Code    30  gd32f30x_dac.o(i.dac_trigger_disable)
    dac_wave_mode_config                     0x08007f09   Thumb Code    48  gd32f30x_dac.o(i.dac_wave_mode_config)
    dma_channel_enable                       0x08007f3d   Thumb Code    50  gd32f30x_dma.o(i.dma_channel_enable)
    dma_circulation_enable                   0x08007f6f   Thumb Code    50  gd32f30x_dma.o(i.dma_circulation_enable)
    dma_deinit                               0x08007fa1   Thumb Code   112  gd32f30x_dma.o(i.dma_deinit)
    dma_init                                 0x08008011   Thumb Code   302  gd32f30x_dma.o(i.dma_init)
    dma_memory_to_memory_disable             0x0800813f   Thumb Code    50  gd32f30x_dma.o(i.dma_memory_to_memory_disable)
    exti_init                                0x08008189   Thumb Code   178  gd32f30x_exti.o(i.exti_init)
    exti_interrupt_flag_clear                0x08008241   Thumb Code     6  gd32f30x_exti.o(i.exti_interrupt_flag_clear)
    exti_interrupt_flag_get                  0x0800824d   Thumb Code    32  gd32f30x_exti.o(i.exti_interrupt_flag_get)
    fputc                                    0x08008271   Thumb Code    32  uart2.o(i.fputc)
    gpio_bit_reset                           0x08008295   Thumb Code     4  gd32f30x_gpio.o(i.gpio_bit_reset)
    gpio_bit_set                             0x08008299   Thumb Code     4  gd32f30x_gpio.o(i.gpio_bit_set)
    gpio_bit_write                           0x0800829d   Thumb Code    10  gd32f30x_gpio.o(i.gpio_bit_write)
    gpio_exti_source_select                  0x080082a9   Thumb Code   146  gd32f30x_gpio.o(i.gpio_exti_source_select)
    gpio_init                                0x08008341   Thumb Code   188  gd32f30x_gpio.o(i.gpio_init)
    gpio_input_bit_get                       0x080083fd   Thumb Code    16  gd32f30x_gpio.o(i.gpio_input_bit_get)
    gpio_output_bit_get                      0x0800840d   Thumb Code    16  gd32f30x_gpio.o(i.gpio_output_bit_get)
    main                                     0x0800841d   Thumb Code   126  main.o(i.main)
    malloc                                   0x08008509   Thumb Code    92  malloc.o(i.malloc)
    nvic_irq_enable                          0x08008575   Thumb Code   186  gd32f30x_misc.o(i.nvic_irq_enable)
    nvic_priority_group_set                  0x08008639   Thumb Code    10  gd32f30x_misc.o(i.nvic_priority_group_set)
    printf_s_aus                             0x0800864d   Thumb Code    22  sprintf.o(i.printf_s_aus)
    rcu_adc_clock_config                     0x08008669   Thumb Code    98  gd32f30x_rcu.o(i.rcu_adc_clock_config)
    rcu_clock_freq_get                       0x080086d5   Thumb Code   310  gd32f30x_rcu.o(i.rcu_clock_freq_get)
    rcu_periph_clock_enable                  0x0800882d   Thumb Code    28  gd32f30x_rcu.o(i.rcu_periph_clock_enable)
    rcu_periph_reset_disable                 0x0800884d   Thumb Code    28  gd32f30x_rcu.o(i.rcu_periph_reset_disable)
    rcu_periph_reset_enable                  0x0800886d   Thumb Code    28  gd32f30x_rcu.o(i.rcu_periph_reset_enable)
    timer_deinit                             0x080089a5   Thumb Code   210  gd32f30x_timer.o(i.timer_deinit)
    timer_enable                             0x08008a81   Thumb Code    10  gd32f30x_timer.o(i.timer_enable)
    timer_init                               0x08008a8d   Thumb Code   122  gd32f30x_timer.o(i.timer_init)
    timer_interrupt_enable                   0x08008b25   Thumb Code     8  gd32f30x_timer.o(i.timer_interrupt_enable)
    timer_interrupt_flag_clear               0x08008b2d   Thumb Code     6  gd32f30x_timer.o(i.timer_interrupt_flag_clear)
    timer_interrupt_flag_get                 0x08008b33   Thumb Code    24  gd32f30x_timer.o(i.timer_interrupt_flag_get)
    timer_struct_para_init                   0x08008b4b   Thumb Code    22  gd32f30x_timer.o(i.timer_struct_para_init)
    usart_baudrate_set                       0x08008b61   Thumb Code   136  gd32f30x_usart.o(i.usart_baudrate_set)
    usart_data_receive                       0x08008bf1   Thumb Code    10  gd32f30x_usart.o(i.usart_data_receive)
    usart_data_transmit                      0x08008bfb   Thumb Code     8  gd32f30x_usart.o(i.usart_data_transmit)
    usart_deinit                             0x08008c05   Thumb Code   136  gd32f30x_usart.o(i.usart_deinit)
    usart_enable                             0x08008c95   Thumb Code    10  gd32f30x_usart.o(i.usart_enable)
    usart_flag_get                           0x08008c9f   Thumb Code    30  gd32f30x_usart.o(i.usart_flag_get)
    usart_interrupt_disable                  0x08008cbd   Thumb Code    26  gd32f30x_usart.o(i.usart_interrupt_disable)
    usart_interrupt_enable                   0x08008cd7   Thumb Code    26  gd32f30x_usart.o(i.usart_interrupt_enable)
    usart_interrupt_flag_clear               0x08008cf1   Thumb Code    26  gd32f30x_usart.o(i.usart_interrupt_flag_clear)
    usart_interrupt_flag_get                 0x08008d0b   Thumb Code    56  gd32f30x_usart.o(i.usart_interrupt_flag_get)
    usart_parity_config                      0x08008d43   Thumb Code    16  gd32f30x_usart.o(i.usart_parity_config)
    usart_receive_config                     0x08008d53   Thumb Code    16  gd32f30x_usart.o(i.usart_receive_config)
    usart_stop_bit_set                       0x08008d63   Thumb Code    16  gd32f30x_usart.o(i.usart_stop_bit_set)
    usart_transmit_config                    0x08008d73   Thumb Code    16  gd32f30x_usart.o(i.usart_transmit_config)
    usart_word_length_set                    0x08008d83   Thumb Code    16  gd32f30x_usart.o(i.usart_word_length_set)
    irr_tcheb_80hz_lp_NL                     0x08008db0   Data           4  filter.o(.constdata)
    irr_tcheb_80hz_lp_num                    0x08008db4   Data          36  filter.o(.constdata)
    irr_tcheb_80hz_lp_den                    0x08008dd8   Data          36  filter.o(.constdata)
    irr_50hz_notch_NL                        0x08008dfc   Data           4  filter.o(.constdata)
    irr_50hz_notch_num                       0x08008e00   Data          12  filter.o(.constdata)
    irr_50hz_notch_den                       0x08008e0c   Data          12  filter.o(.constdata)
    f125_15_20LP_NL                          0x08008e18   Data           4  filter.o(.constdata)
    f125_15_20LP_num                         0x08008e1c   Data          32  filter.o(.constdata)
    f125_15_20LP_den                         0x08008e3c   Data          32  filter.o(.constdata)
    OSCfg_IdleTaskStkBasePtr                 0x08008f58   Data           4  os_cfg_app.o(.constdata)
    OSCfg_IdleTaskStkLimit                   0x08008f5c   Data           4  os_cfg_app.o(.constdata)
    OSCfg_IdleTaskStkSize                    0x08008f60   Data           4  os_cfg_app.o(.constdata)
    OSCfg_IdleTaskStkSizeRAM                 0x08008f64   Data           4  os_cfg_app.o(.constdata)
    OSCfg_IntQBasePtr                        0x08008f68   Data           4  os_cfg_app.o(.constdata)
    OSCfg_IntQSize                           0x08008f6c   Data           2  os_cfg_app.o(.constdata)
    OSCfg_IntQSizeRAM                        0x08008f70   Data           4  os_cfg_app.o(.constdata)
    OSCfg_IntQTaskStkBasePtr                 0x08008f74   Data           4  os_cfg_app.o(.constdata)
    OSCfg_IntQTaskStkLimit                   0x08008f78   Data           4  os_cfg_app.o(.constdata)
    OSCfg_IntQTaskStkSize                    0x08008f7c   Data           4  os_cfg_app.o(.constdata)
    OSCfg_IntQTaskStkSizeRAM                 0x08008f80   Data           4  os_cfg_app.o(.constdata)
    OSCfg_ISRStkBasePtr                      0x08008f84   Data           4  os_cfg_app.o(.constdata)
    OSCfg_ISRStkSize                         0x08008f88   Data           4  os_cfg_app.o(.constdata)
    OSCfg_ISRStkSizeRAM                      0x08008f8c   Data           4  os_cfg_app.o(.constdata)
    OSCfg_MsgPoolSize                        0x08008f90   Data           2  os_cfg_app.o(.constdata)
    OSCfg_MsgPoolSizeRAM                     0x08008f94   Data           4  os_cfg_app.o(.constdata)
    OSCfg_MsgPoolBasePtr                     0x08008f98   Data           4  os_cfg_app.o(.constdata)
    OSCfg_StatTaskPrio                       0x08008f9c   Data           1  os_cfg_app.o(.constdata)
    OSCfg_StatTaskRate_Hz                    0x08008fa0   Data           4  os_cfg_app.o(.constdata)
    OSCfg_StatTaskStkBasePtr                 0x08008fa4   Data           4  os_cfg_app.o(.constdata)
    OSCfg_StatTaskStkLimit                   0x08008fa8   Data           4  os_cfg_app.o(.constdata)
    OSCfg_StatTaskStkSize                    0x08008fac   Data           4  os_cfg_app.o(.constdata)
    OSCfg_StatTaskStkSizeRAM                 0x08008fb0   Data           4  os_cfg_app.o(.constdata)
    OSCfg_StkSizeMin                         0x08008fb4   Data           4  os_cfg_app.o(.constdata)
    OSCfg_TickRate_Hz                        0x08008fb8   Data           4  os_cfg_app.o(.constdata)
    OSCfg_TickTaskPrio                       0x08008fbc   Data           1  os_cfg_app.o(.constdata)
    OSCfg_TickTaskStkBasePtr                 0x08008fc0   Data           4  os_cfg_app.o(.constdata)
    OSCfg_TickTaskStkLimit                   0x08008fc4   Data           4  os_cfg_app.o(.constdata)
    OSCfg_TickTaskStkSize                    0x08008fc8   Data           4  os_cfg_app.o(.constdata)
    OSCfg_TickTaskStkSizeRAM                 0x08008fcc   Data           4  os_cfg_app.o(.constdata)
    OSCfg_TmrTaskPrio                        0x08008fd0   Data           1  os_cfg_app.o(.constdata)
    OSCfg_TmrTaskRate_Hz                     0x08008fd4   Data           4  os_cfg_app.o(.constdata)
    OSCfg_TmrTaskStkBasePtr                  0x08008fd8   Data           4  os_cfg_app.o(.constdata)
    OSCfg_TmrTaskStkLimit                    0x08008fdc   Data           4  os_cfg_app.o(.constdata)
    OSCfg_TmrTaskStkSize                     0x08008fe0   Data           4  os_cfg_app.o(.constdata)
    OSCfg_TmrTaskStkSizeRAM                  0x08008fe4   Data           4  os_cfg_app.o(.constdata)
    OSCfg_DataSizeRAM                        0x08008fe8   Data           4  os_cfg_app.o(.constdata)
    OSDbg_DbgEn                              0x08008fec   Data           1  os_dbg.o(.constdata)
    OSDbg_ArgChkEn                           0x08008fed   Data           1  os_dbg.o(.constdata)
    OSDbg_AppHooksEn                         0x08008fee   Data           1  os_dbg.o(.constdata)
    OSDbg_EndiannessTest                     0x08008ff0   Data           4  os_dbg.o(.constdata)
    OSDbg_CalledFromISRChkEn                 0x08008ff4   Data           1  os_dbg.o(.constdata)
    OSDbg_FlagEn                             0x08008ff5   Data           1  os_dbg.o(.constdata)
    OSDbg_FlagGrp                            0x08008ff8   Data          40  os_dbg.o(.constdata)
    OSDbg_FlagDelEn                          0x08009020   Data           1  os_dbg.o(.constdata)
    OSDbg_FlagModeClrEn                      0x08009021   Data           1  os_dbg.o(.constdata)
    OSDbg_FlagPendAbortEn                    0x08009022   Data           1  os_dbg.o(.constdata)
    OSDbg_FlagGrpSize                        0x08009024   Data           2  os_dbg.o(.constdata)
    OSDbg_FlagWidth                          0x08009026   Data           2  os_dbg.o(.constdata)
    OSDbg_IntQ                               0x08009028   Data           2  os_dbg.o(.constdata)
    OSDbg_ISRPostDeferredEn                  0x0800902a   Data           1  os_dbg.o(.constdata)
    OSDbg_Mem                                0x0800902c   Data          32  os_dbg.o(.constdata)
    OSDbg_MemEn                              0x0800904c   Data           1  os_dbg.o(.constdata)
    OSDbg_MemSize                            0x0800904e   Data           2  os_dbg.o(.constdata)
    OSDbg_MsgEn                              0x08009050   Data           1  os_dbg.o(.constdata)
    OSDbg_MsgSize                            0x08009052   Data           2  os_dbg.o(.constdata)
    OSDbg_MsgPoolSize                        0x08009054   Data           2  os_dbg.o(.constdata)
    OSDbg_MsgQSize                           0x08009056   Data           2  os_dbg.o(.constdata)
    OSDbg_Mutex                              0x08009058   Data          48  os_dbg.o(.constdata)
    OSDbg_MutexEn                            0x08009088   Data           1  os_dbg.o(.constdata)
    OSDbg_MutexDelEn                         0x08009089   Data           1  os_dbg.o(.constdata)
    OSDbg_MutexPendAbortEn                   0x0800908a   Data           1  os_dbg.o(.constdata)
    OSDbg_MutexSize                          0x0800908c   Data           2  os_dbg.o(.constdata)
    OSDbg_ObjTypeChkEn                       0x0800908e   Data           1  os_dbg.o(.constdata)
    OSDbg_PendMultiEn                        0x0800908f   Data           1  os_dbg.o(.constdata)
    OSDbg_PendDataSize                       0x08009090   Data           2  os_dbg.o(.constdata)
    OSDbg_PendListSize                       0x08009092   Data           2  os_dbg.o(.constdata)
    OSDbg_PendObjSize                        0x08009094   Data           2  os_dbg.o(.constdata)
    OSDbg_PrioMax                            0x08009096   Data           2  os_dbg.o(.constdata)
    OSDbg_PrioTblSize                        0x08009098   Data           2  os_dbg.o(.constdata)
    OSDbg_PtrSize                            0x0800909a   Data           2  os_dbg.o(.constdata)
    OSDbg_Q                                  0x0800909c   Data          48  os_dbg.o(.constdata)
    OSDbg_QEn                                0x080090cc   Data           1  os_dbg.o(.constdata)
    OSDbg_QDelEn                             0x080090cd   Data           1  os_dbg.o(.constdata)
    OSDbg_QFlushEn                           0x080090ce   Data           1  os_dbg.o(.constdata)
    OSDbg_QPendAbortEn                       0x080090cf   Data           1  os_dbg.o(.constdata)
    OSDbg_QSize                              0x080090d0   Data           2  os_dbg.o(.constdata)
    OSDbg_SchedRoundRobinEn                  0x080090d2   Data           1  os_dbg.o(.constdata)
    OSDbg_Sem                                0x080090d4   Data          40  os_dbg.o(.constdata)
    OSDbg_SemEn                              0x080090fc   Data           1  os_dbg.o(.constdata)
    OSDbg_SemDelEn                           0x080090fd   Data           1  os_dbg.o(.constdata)
    OSDbg_SemPendAbortEn                     0x080090fe   Data           1  os_dbg.o(.constdata)
    OSDbg_SemSetEn                           0x080090ff   Data           1  os_dbg.o(.constdata)
    OSDbg_SemSize                            0x08009100   Data           2  os_dbg.o(.constdata)
    OSDbg_RdyList                            0x08009102   Data           2  os_dbg.o(.constdata)
    OSDbg_RdyListSize                        0x08009104   Data           4  os_dbg.o(.constdata)
    OSDbg_StkWidth                           0x08009108   Data           1  os_dbg.o(.constdata)
    OSDbg_StatTaskEn                         0x08009109   Data           1  os_dbg.o(.constdata)
    OSDbg_StatTaskStkChkEn                   0x0800910a   Data           1  os_dbg.o(.constdata)
    OSDbg_TaskChangePrioEn                   0x0800910b   Data           1  os_dbg.o(.constdata)
    OSDbg_TaskDelEn                          0x0800910c   Data           1  os_dbg.o(.constdata)
    OSDbg_TaskQEn                            0x0800910d   Data           1  os_dbg.o(.constdata)
    OSDbg_TaskQPendAbortEn                   0x0800910e   Data           1  os_dbg.o(.constdata)
    OSDbg_TaskProfileEn                      0x0800910f   Data           1  os_dbg.o(.constdata)
    OSDbg_TaskRegTblSize                     0x08009110   Data           2  os_dbg.o(.constdata)
    OSDbg_TaskSemPendAbortEn                 0x08009112   Data           1  os_dbg.o(.constdata)
    OSDbg_TaskSuspendEn                      0x08009113   Data           1  os_dbg.o(.constdata)
    OSDbg_TCBSize                            0x08009114   Data           2  os_dbg.o(.constdata)
    OSDbg_TickListSize                       0x08009116   Data           2  os_dbg.o(.constdata)
    OSDbg_TimeDlyHMSMEn                      0x08009118   Data           1  os_dbg.o(.constdata)
    OSDbg_TimeDlyResumeEn                    0x08009119   Data           1  os_dbg.o(.constdata)
    OSDbg_TLS_TblSize                        0x0800911a   Data           2  os_dbg.o(.constdata)
    OSDbg_Tmr                                0x0800911c   Data          48  os_dbg.o(.constdata)
    OSDbg_TmrEn                              0x0800914c   Data           1  os_dbg.o(.constdata)
    OSDbg_TmrDelEn                           0x0800914d   Data           1  os_dbg.o(.constdata)
    OSDbg_TmrSize                            0x0800914e   Data           2  os_dbg.o(.constdata)
    OSDbg_VersionNbr                         0x08009150   Data           2  os_dbg.o(.constdata)
    OSDbg_DataSize                           0x08009154   Data           4  os_dbg.o(.constdata)
    Region$$Table$$Base                      0x080091e8   Number         0  anon$$obj.o(Region$$Table)
    Region$$Table$$Limit                     0x08009208   Number         0  anon$$obj.o(Region$$Table)
    ECGData                                  0x20000000   Data           4  ecg.o(.data)
    ECG_ProbeStatus                          0x20000004   Data           1  ecg.o(.data)
    AVE_BP                                   0x20000100   Data           8  nibp.o(.data)
    H_BP                                     0x20000108   Data           8  nibp.o(.data)
    L_BP                                     0x20000110   Data           8  nibp.o(.data)
    ad1                                      0x20000148   Data           2  nibp.o(.data)
    ad2                                      0x2000014a   Data           2  nibp.o(.data)
    coef1                                    0x2000014c   Data           4  nibp.o(.data)
    coef2                                    0x20000150   Data           4  nibp.o(.data)
    CPU_TS_TmrFreq_Hz                        0x20000160   Data           4  cpu_core.o(.data)
    Math_RandSeedCur                         0x20000164   Data           4  lib_math.o(.data)
    Mem_SegHeadPtr                           0x20000168   Data           4  lib_mem.o(.data)
    OSPrioTbl                                0x2000016c   Data           8  os_prio.o(.data)
    OS_AppTaskCreateHookPtr                  0x20000174   Data           4  os_var.o(.data)
    OS_AppTaskDelHookPtr                     0x20000178   Data           4  os_var.o(.data)
    OS_AppTaskReturnHookPtr                  0x2000017c   Data           4  os_var.o(.data)
    OS_AppIdleTaskHookPtr                    0x20000180   Data           4  os_var.o(.data)
    OS_AppStatTaskHookPtr                    0x20000184   Data           4  os_var.o(.data)
    OS_AppTaskSwHookPtr                      0x20000188   Data           4  os_var.o(.data)
    OS_AppTimeTickHookPtr                    0x2000018c   Data           4  os_var.o(.data)
    OSIdleTaskCtr                            0x20000190   Data           4  os_var.o(.data)
    OSIntNestingCtr                          0x20000194   Data           1  os_var.o(.data)
    OSRunning                                0x20000195   Data           1  os_var.o(.data)
    OSFlagDbgListPtr                         0x20000198   Data           4  os_var.o(.data)
    OSFlagQty                                0x2000019c   Data           2  os_var.o(.data)
    OSMemDbgListPtr                          0x200001a0   Data           4  os_var.o(.data)
    OSMemQty                                 0x200001a4   Data           2  os_var.o(.data)
    OSMutexDbgListPtr                        0x200001a8   Data           4  os_var.o(.data)
    OSMutexQty                               0x200001ac   Data           2  os_var.o(.data)
    OSPrioCur                                0x200001ae   Data           1  os_var.o(.data)
    OSPrioHighRdy                            0x200001af   Data           1  os_var.o(.data)
    OSPrioSaved                              0x200001b0   Data           1  os_var.o(.data)
    OSQDbgListPtr                            0x200001b4   Data           4  os_var.o(.data)
    OSQQty                                   0x200001b8   Data           2  os_var.o(.data)
    OSSchedLockTimeBegin                     0x200001bc   Data           4  os_var.o(.data)
    OSSchedLockTimeMax                       0x200001c0   Data           4  os_var.o(.data)
    OSSchedLockTimeMaxCur                    0x200001c4   Data           4  os_var.o(.data)
    OSSchedLockNestingCtr                    0x200001c8   Data           1  os_var.o(.data)
    OSSemDbgListPtr                          0x200001cc   Data           4  os_var.o(.data)
    OSSemQty                                 0x200001d0   Data           2  os_var.o(.data)
    OSStatResetFlag                          0x200001d2   Data           1  os_var.o(.data)
    OSStatTaskCPUUsage                       0x200001d4   Data           2  os_var.o(.data)
    OSStatTaskCPUUsageMax                    0x200001d6   Data           2  os_var.o(.data)
    OSStatTaskCtr                            0x200001d8   Data           4  os_var.o(.data)
    OSStatTaskCtrMax                         0x200001dc   Data           4  os_var.o(.data)
    OSStatTaskCtrRun                         0x200001e0   Data           4  os_var.o(.data)
    OSStatTaskRdy                            0x200001e4   Data           1  os_var.o(.data)
    OSStatTaskTimeMax                        0x200001e8   Data           4  os_var.o(.data)
    OSTaskCtxSwCtr                           0x200001ec   Data           4  os_var.o(.data)
    OSTaskDbgListPtr                         0x200001f0   Data           4  os_var.o(.data)
    OSTaskQty                                0x200001f4   Data           2  os_var.o(.data)
    OSTaskRegNextAvailID                     0x200001f6   Data           1  os_var.o(.data)
    OSTickCtr                                0x200001f8   Data           4  os_var.o(.data)
    OSTickTaskTimeMax                        0x200001fc   Data           4  os_var.o(.data)
    OSTickListDly                            0x20000200   Data           8  os_var.o(.data)
    OSTickListTimeout                        0x20000208   Data           8  os_var.o(.data)
    OSTmrDbgListPtr                          0x20000210   Data           4  os_var.o(.data)
    OSTmrListEntries                         0x20000214   Data           2  os_var.o(.data)
    OSTmrListPtr                             0x20000218   Data           4  os_var.o(.data)
    OSTmrQty                                 0x2000021c   Data           2  os_var.o(.data)
    OSTmrTaskTimeMax                         0x20000220   Data           4  os_var.o(.data)
    OSTmrTickCtr                             0x20000224   Data           4  os_var.o(.data)
    OSTmrUpdateCnt                           0x20000228   Data           4  os_var.o(.data)
    OSTmrUpdateCtr                           0x2000022c   Data           4  os_var.o(.data)
    OSTCBCurPtr                              0x20000230   Data           4  os_var.o(.data)
    OSTCBHighRdyPtr                          0x20000234   Data           4  os_var.o(.data)
    OS_CPU_ExceptStkBase                     0x20000238   Data           4  os_cpu_c.o(.data)
    __stdout                                 0x2000023c   Data           4  stdout.o(.data)
    __microlib_freelist                      0x20000240   Data           4  mvars.o(.data)
    __microlib_freelist_initialised          0x20000244   Data           4  mvars.o(.data)
    g_tcbStartTask                           0x20000248   Data         192  main.o(.bss)
    g_tcbLEDTask                             0x20000b08   Data         192  led.o(.bss)
    g_tcbECG_SamplTask                       0x20000df0   Data         192  ecg.o(.bss)
    g_tcbECG_ProbeTask                       0x200016b0   Data         192  ecg.o(.bss)
    g_tcbSPO2_ProbeTask                      0x20001f80   Data         192  spo2.o(.bss)
    g_tcbRED_AdjTask                         0x20002240   Data         192  spo2.o(.bss)
    g_tcbIR_AdjTask                          0x20002700   Data         192  spo2.o(.bss)
    g_tcbSPO2_SamplTask                      0x20002bc0   Data         192  spo2.o(.bss)
    g_tcbNIBP_PreMonitorTask                 0x20004530   Data         192  nibp.o(.bss)
    g_tcbNIBP_StarTask                       0x200049f0   Data         192  nibp.o(.bss)
    g_tcbNIBP_MeasureTask                    0x20004eb0   Data         192  nibp.o(.bss)
    g_tcbNIBP_PulseSamplTask                 0x20005370   Data         192  nibp.o(.bss)
    b                                        0x20007430   Data         120  polynomialfit.o(.bss)
    zz                                       0x200074a8   Data         576  polynomialfit.o(.bss)
    fz                                       0x200076e8   Data          64  polynomialfit.o(.bss)
    g_tcbPtintf                              0x20007728   Data         192  sprintf.o(.bss)
    g_quePrintQueue                          0x200087e8   Data          48  sprintf.o(.bss)
    g_mutexTest                              0x20008818   Data          48  sprintf.o(.bss)
    CPU_Name                                 0x20008af4   Data          16  cpu_core.o(.bss)
    Mem_Heap                                 0x20008b04   Data        3072  lib_mem.o(.bss)
    Mem_SegHeap                              0x20009704   Data          20  lib_mem.o(.bss)
    OSCfg_IdleTaskStk                        0x20009718   Data         256  os_cfg_app.o(.bss)
    OSCfg_ISRStk                             0x20009818   Data         400  os_cfg_app.o(.bss)
    OSCfg_MsgPool                            0x200099a8   Data        1600  os_cfg_app.o(.bss)
    OSCfg_StatTaskStk                        0x20009fe8   Data         400  os_cfg_app.o(.bss)
    OSCfg_TickTaskStk                        0x2000a178   Data         400  os_cfg_app.o(.bss)
    OSCfg_TmrTaskStk                         0x2000a308   Data         400  os_cfg_app.o(.bss)
    OSIdleTaskTCB                            0x2000a498   Data         192  os_var.o(.bss)
    OSMsgPool                                0x2000a558   Data          12  os_var.o(.bss)
    OSRdyList                                0x2000a564   Data         768  os_var.o(.bss)
    OSStatTaskTCB                            0x2000a864   Data         192  os_var.o(.bss)
    OSTickTaskTCB                            0x2000a924   Data         192  os_var.o(.bss)
    OSTmrMutex                               0x2000a9e4   Data          48  os_var.o(.bss)
    OSTmrTaskTCB                             0x2000aa14   Data         192  os_var.o(.bss)
    __heap_base                              0x2000aad8   Data           0  startup_gd32f30x_hd.o(HEAP)
    __heap_limit                             0x2000aed8   Data           0  startup_gd32f30x_hd.o(HEAP)
    __initial_sp                             0x2000b6d8   Data           0  startup_gd32f30x_hd.o(STACK)



==============================================================================

Memory Map of the image

  Image Entry point : 0x08000131

  Load Region LR_IROM1 (Base: 0x08000000, Size: 0x00009450, Max: 0x00080000, ABSOLUTE, COMPRESSED[0x000092b8])

    Execution Region ER_IROM1 (Exec base: 0x08000000, Load base: 0x08000000, Size: 0x00009208, Max: 0x00080000, ABSOLUTE)

    Exec Addr    Load Addr    Size         Type   Attr      Idx    E Section Name        Object

    0x08000000   0x08000000   0x00000130   Data   RO         4247    RESET               startup_gd32f30x_hd.o
    0x08000130   0x08000130   0x00000000   Code   RO         6221  * .ARM.Collect$$$$00000000  mc_w.l(entry.o)
    0x08000130   0x08000130   0x00000004   Code   RO         6541    .ARM.Collect$$$$00000001  mc_w.l(entry2.o)
    0x08000134   0x08000134   0x00000004   Code   RO         6544    .ARM.Collect$$$$00000004  mc_w.l(entry5.o)
    0x08000138   0x08000138   0x00000000   Code   RO         6546    .ARM.Collect$$$$00000008  mc_w.l(entry7b.o)
    0x08000138   0x08000138   0x00000000   Code   RO         6548    .ARM.Collect$$$$0000000A  mc_w.l(entry8b.o)
    0x08000138   0x08000138   0x00000008   Code   RO         6549    .ARM.Collect$$$$0000000B  mc_w.l(entry9a.o)
    0x08000140   0x08000140   0x00000000   Code   RO         6551    .ARM.Collect$$$$0000000D  mc_w.l(entry10a.o)
    0x08000140   0x08000140   0x00000000   Code   RO         6553    .ARM.Collect$$$$0000000F  mc_w.l(entry11a.o)
    0x08000140   0x08000140   0x00000004   Code   RO         6542    .ARM.Collect$$$$00002712  mc_w.l(entry2.o)
    0x08000144   0x08000144   0x0000004c   Code   RO         4248    .text               startup_gd32f30x_hd.o
    0x08000190   0x08000190   0x00000034   Code   RO         4498    .text               cpu_a.o
    0x080001c4   0x080001c4   0x00000062   Code   RO         6224    .text               mc_w.l(uldiv.o)
    0x08000226   0x08000226   0x00000024   Code   RO         6226    .text               mc_w.l(memcpya.o)
    0x0800024a   0x0800024a   0x00000024   Code   RO         6228    .text               mc_w.l(memseta.o)
    0x0800026e   0x0800026e   0x0000014e   Code   RO         6521    .text               mf_w.l(dadd.o)
    0x080003bc   0x080003bc   0x000000e4   Code   RO         6523    .text               mf_w.l(dmul.o)
    0x080004a0   0x080004a0   0x000000de   Code   RO         6525    .text               mf_w.l(ddiv.o)
    0x0800057e   0x0800057e   0x00000022   Code   RO         6527    .text               mf_w.l(dflti.o)
    0x080005a0   0x080005a0   0x0000003e   Code   RO         6531    .text               mf_w.l(dfixi.o)
    0x080005de   0x080005de   0x00000026   Code   RO         6533    .text               mf_w.l(f2d.o)
    0x08000604   0x08000604   0x00000030   Code   RO         6535    .text               mf_w.l(cdcmple.o)
    0x08000634   0x08000634   0x00000030   Code   RO         6537    .text               mf_w.l(cdrcmple.o)
    0x08000664   0x08000664   0x00000038   Code   RO         6539    .text               mf_w.l(d2f.o)
    0x0800069c   0x0800069c   0x0000002c   Code   RO         6556    .text               mc_w.l(uidiv.o)
    0x080006c8   0x080006c8   0x0000001e   Code   RO         6558    .text               mc_w.l(llshl.o)
    0x080006e6   0x080006e6   0x00000020   Code   RO         6560    .text               mc_w.l(llushr.o)
    0x08000706   0x08000706   0x00000024   Code   RO         6562    .text               mc_w.l(llsshr.o)
    0x0800072a   0x0800072a   0x00000000   Code   RO         6566    .text               mc_w.l(iusefp.o)
    0x0800072a   0x0800072a   0x0000006e   Code   RO         6567    .text               mf_w.l(fepilogue.o)
    0x08000798   0x08000798   0x000000ba   Code   RO         6569    .text               mf_w.l(depilogue.o)
    0x08000852   0x08000852   0x00000030   Code   RO         6571    .text               mf_w.l(dfixul.o)
    0x08000882   0x08000882   0x00000002   PAD
    0x08000884   0x08000884   0x00000024   Code   RO         6573    .text               mc_w.l(init.o)
    0x080008a8   0x080008a8   0x00000056   Code   RO         6583    .text               mc_w.l(__dczerorl2.o)
    0x080008fe   0x080008fe   0x00000002   PAD
    0x08000900   0x08000900   0x0000010c   Code   RO         6064    CODE                os_cpu_a.o
    0x08000a0c   0x08000a0c   0x00000028   Code   RO          758    i.ADtoPre           nibp.o
    0x08000a34   0x08000a34   0x0000000a   Code   RO         4255    i.BSP_CPU_ClkFreq   bsp.o
    0x08000a3e   0x08000a3e   0x00000002   PAD
    0x08000a40   0x08000a40   0x0000001c   Code   RO         4256    i.BSP_Tick_Init     bsp.o
    0x08000a5c   0x08000a5c   0x00000004   Code   RO         4107    i.BusFault_Handler  gd32f30x_it.o
    0x08000a60   0x08000a60   0x0000000c   Code   RO         4380    i.CPU_Init          cpu_core.o
    0x08000a6c   0x08000a6c   0x00000030   Code   RO         4381    i.CPU_NameClr       cpu_core.o
    0x08000a9c   0x08000a9c   0x00000008   Code   RO         4383    i.CPU_NameInit      cpu_core.o
    0x08000aa4   0x08000aa4   0x00000004   Code   RO         4385    i.CPU_SW_Exception  cpu_core.o
    0x08000aa8   0x08000aa8   0x00000014   Code   RO         4387    i.CPU_TS_Init       cpu_core.o
    0x08000abc   0x08000abc   0x0000000c   Code   RO         4389    i.CPU_TS_TmrFreqSet  cpu_core.o
    0x08000ac8   0x08000ac8   0x00000034   Code   RO         4258    i.CPU_TS_TmrInit    bsp.o
    0x08000afc   0x08000afc   0x0000000c   Code   RO         4259    i.CPU_TS_TmrRd      bsp.o
    0x08000b08   0x08000b08   0x000000c8   Code   RO          945    i.CalcPolynomial    polynomialfit.o
    0x08000bd0   0x08000bd0   0x00000124   Code   RO         1322    i.ConfigADC0        adc.o
    0x08000cf4   0x08000cf4   0x00000038   Code   RO          607    i.ConfigCSGPIO      spo2_hw_cfg.o
    0x08000d2c   0x08000d2c   0x00000048   Code   RO          608    i.ConfigDACGPIO     spo2_hw_cfg.o
    0x08000d74   0x08000d74   0x00000074   Code   RO         1323    i.ConfigDMA0CH0ForADC0  adc.o
    0x08000de8   0x08000de8   0x00000034   Code   RO          388    i.ConfigECGGPIO     ecg.o
    0x08000e1c   0x08000e1c   0x00000040   Code   RO          298    i.ConfigLEDGPIO     led.o
    0x08000e5c   0x08000e5c   0x00000094   Code   RO          851    i.ConfigNIBPGPIO    nibp_hw_cfg.o
    0x08000ef0   0x08000ef0   0x0000000c   Code   RO         4173    i.ConfigNVIC        nvic.o
    0x08000efc   0x08000efc   0x00000020   Code   RO          759    i.ConfigSw1Gpio     nibp.o
    0x08000f1c   0x08000f1c   0x00000030   Code   RO          760    i.ConfigSw21EXTI    nibp.o
    0x08000f4c   0x08000f4c   0x00000050   Code   RO          609    i.ConfigTimer3      spo2_hw_cfg.o
    0x08000f9c   0x08000f9c   0x000000a0   Code   RO         1142    i.ConfigUART        uart0.o
    0x0800103c   0x0800103c   0x0000009c   Code   RO         1388    i.ConfigUART        uart1.o
    0x080010d8   0x080010d8   0x000000a0   Code   RO         1461    i.ConfigUART        uart2.o
    0x08001178   0x08001178   0x00000026   Code   RO          337    i.CreatIRR_Filter_str  filter.o
    0x0800119e   0x0800119e   0x00000044   Code   RO         1086    i.DeQueue           queue.o
    0x080011e2   0x080011e2   0x00000002   Code   RO         4108    i.DebugMon_Handler  gd32f30x_it.o
    0x080011e4   0x080011e4   0x0000009c   Code   RO          389    i.ECG_ProbeTask     ecg.o
    0x08001280   0x08001280   0x0000022c   Code   RO          390    i.ECG_SamplTask     ecg.o
    0x080014ac   0x080014ac   0x000000e0   Code   RO          761    i.EXTI10_15_IRQHandler  nibp.o
    0x0800158c   0x0800158c   0x00000048   Code   RO         1087    i.EnQueue           queue.o
    0x080015d4   0x080015d4   0x00000128   Code   RO          946    i.FindFirstMaxInPolynomial  polynomialfit.o
    0x080016fc   0x080016fc   0x00000070   Code   RO          999    i.FindMajority      calculate.o
    0x0800176c   0x0800176c   0x0000000e   Code   RO          762    i.FindMax           nibp.o
    0x0800177a   0x0800177a   0x0000000e   Code   RO         1000    i.FindMax           calculate.o
    0x08001788   0x08001788   0x0000000e   Code   RO          763    i.FindMin           nibp.o
    0x08001796   0x08001796   0x0000000e   Code   RO         1001    i.FindMin           calculate.o
    0x080017a4   0x080017a4   0x0000006a   Code   RO         1002    i.FindPeriod_by_Peak  calculate.o
    0x0800180e   0x0800180e   0x00000002   PAD
    0x08001810   0x08001810   0x0000000c   Code   RO         1324    i.GetCuff           adc.o
    0x0800181c   0x0800181c   0x0000000c   Code   RO         1325    i.GetEcg            adc.o
    0x08001828   0x08001828   0x0000000c   Code   RO         1326    i.GetPulse          adc.o
    0x08001834   0x08001834   0x0000000c   Code   RO         1327    i.GetSPO2           adc.o
    0x08001840   0x08001840   0x0000000c   Code   RO          610    i.GetSPO2_IRData    spo2_hw_cfg.o
    0x0800184c   0x0800184c   0x0000000c   Code   RO          611    i.GetSPO2_REDData   spo2_hw_cfg.o
    0x08001858   0x08001858   0x00000004   Code   RO         4109    i.HardFault_Handler  gd32f30x_it.o
    0x0800185c   0x0800185c   0x000000a4   Code   RO          339    i.IIR_Filter        filter.o
    0x08001900   0x08001900   0x000000d8   Code   RO          701    i.IR_AdjTask        spo2.o
    0x080019d8   0x080019d8   0x00000010   Code   RO          612    i.IR_OFF            spo2_hw_cfg.o
    0x080019e8   0x080019e8   0x00000010   Code   RO          613    i.IR_ON             spo2_hw_cfg.o
    0x080019f8   0x080019f8   0x0000000c   Code   RO         1329    i.InitADC           adc.o
    0x08001a04   0x08001a04   0x00000128   Code   RO          391    i.InitECG           ecg.o
    0x08001b2c   0x08001b2c   0x00000024   Code   RO            4    i.InitHardware      main.o
    0x08001b50   0x08001b50   0x00000030   Code   RO          340    i.InitIRR_Filter_str  filter.o
    0x08001b80   0x08001b80   0x000000e0   Code   RO          299    i.InitLED           led.o
    0x08001c60   0x08001c60   0x00000148   Code   RO          764    i.InitNIBP          nibp.o
    0x08001da8   0x08001da8   0x00000008   Code   RO          852    i.InitNIBP_HW_CFG   nibp_hw_cfg.o
    0x08001db0   0x08001db0   0x00000008   Code   RO         4174    i.InitNVIC          nvic.o
    0x08001db8   0x08001db8   0x00000024   Code   RO         1088    i.InitQueue         queue.o
    0x08001ddc   0x08001ddc   0x00000134   Code   RO          702    i.InitSPO2          spo2.o
    0x08001f10   0x08001f10   0x00000016   Code   RO          614    i.InitSPO2_HW_CFG   spo2_hw_cfg.o
    0x08001f26   0x08001f26   0x00000018   Code   RO            5    i.InitSoftware      main.o
    0x08001f3e   0x08001f3e   0x00000002   PAD
    0x08001f40   0x08001f40   0x0000016c   Code   RO         1044    i.InitSprintf       sprintf.o
    0x080020ac   0x080020ac   0x00000010   Code   RO         1144    i.InitUART0         uart0.o
    0x080020bc   0x080020bc   0x00000010   Code   RO         1390    i.InitUART1         uart1.o
    0x080020cc   0x080020cc   0x00000010   Code   RO         1463    i.InitUART2         uart2.o
    0x080020dc   0x080020dc   0x00000040   Code   RO         1145    i.InitUARTBuf       uart0.o
    0x0800211c   0x0800211c   0x00000040   Code   RO         1391    i.InitUARTBuf       uart1.o
    0x0800215c   0x0800215c   0x00000040   Code   RO         1464    i.InitUARTBuf       uart2.o
    0x0800219c   0x0800219c   0x00000058   Code   RO          300    i.LEDTask           led.o
    0x080021f4   0x080021f4   0x0000000a   Code   RO         4606    i.Math_Init         lib_math.o
    0x080021fe   0x080021fe   0x00000002   PAD
    0x08002200   0x08002200   0x0000002c   Code   RO         4609    i.Math_RandSetSeed  lib_math.o
    0x0800222c   0x0800222c   0x00000004   Code   RO         4110    i.MemManage_Handler  gd32f30x_it.o
    0x08002230   0x08002230   0x00000012   Code   RO         4642    i.Mem_Clr           lib_mem.o
    0x08002242   0x08002242   0x00000002   PAD
    0x08002244   0x08002244   0x0000004c   Code   RO         4652    i.Mem_Init          lib_mem.o
    0x08002290   0x08002290   0x0000004a   Code   RO         4665    i.Mem_SegCreate     lib_mem.o
    0x080022da   0x080022da   0x00000002   PAD
    0x080022dc   0x080022dc   0x00000020   Code   RO         4666    i.Mem_SegCreateCritical  lib_mem.o
    0x080022fc   0x080022fc   0x00000054   Code   RO         4669    i.Mem_Set           lib_mem.o
    0x08002350   0x08002350   0x000004d4   Code   RO          765    i.NIBP_MeasureTask  nibp.o
    0x08002824   0x08002824   0x00000068   Code   RO          766    i.NIBP_PreMonitorTask  nibp.o
    0x0800288c   0x0800288c   0x000001c4   Code   RO          767    i.NIBP_StarTask     nibp.o
    0x08002a50   0x08002a50   0x00000002   Code   RO         4111    i.NMI_Handler       gd32f30x_it.o
    0x08002a52   0x08002a52   0x00000002   Code   RO         4977    i.OSCfg_Init        os_cfg_app.o
    0x08002a54   0x08002a54   0x00000014   Code   RO         6067    i.OSIdleTaskHook    os_cpu_c.o
    0x08002a68   0x08002a68   0x00000164   Code   RO         5000    i.OSInit            os_core.o
    0x08002bcc   0x08002bcc   0x00000028   Code   RO         6068    i.OSInitHook        os_cpu_c.o
    0x08002bf4   0x08002bf4   0x000000dc   Code   RO         5002    i.OSIntExit         os_core.o
    0x08002cd0   0x08002cd0   0x00000070   Code   RO         5393    i.OSMutexCreate     os_mutex.o
    0x08002d40   0x08002d40   0x000001d0   Code   RO         5395    i.OSMutexPend       os_mutex.o
    0x08002f10   0x08002f10   0x0000018c   Code   RO         5397    i.OSMutexPost       os_mutex.o
    0x0800309c   0x0800309c   0x0000007c   Code   RO         5520    i.OSQCreate         os_q.o
    0x08003118   0x08003118   0x000001b8   Code   RO         5523    i.OSQPend           os_q.o
    0x080032d0   0x080032d0   0x00000094   Code   RO         5525    i.OSQPost           os_q.o
    0x08003364   0x08003364   0x000000a4   Code   RO         5003    i.OSSched           os_core.o
    0x08003408   0x08003408   0x00000060   Code   RO         5004    i.OSSchedLock       os_core.o
    0x08003468   0x08003468   0x00000080   Code   RO         5005    i.OSSchedUnlock     os_core.o
    0x080034e8   0x080034e8   0x00000068   Code   RO         5006    i.OSStart           os_core.o
    0x08003550   0x08003550   0x00000128   Code   RO         5664    i.OSStatReset       os_stat.o
    0x08003678   0x08003678   0x000000f0   Code   RO         5665    i.OSStatTaskCPUUsageInit  os_stat.o
    0x08003768   0x08003768   0x00000014   Code   RO         6069    i.OSStatTaskHook    os_cpu_c.o
    0x0800377c   0x0800377c   0x00000190   Code   RO         5695    i.OSTaskCreate      os_task.o
    0x0800390c   0x0800390c   0x00000018   Code   RO         6070    i.OSTaskCreateHook  os_cpu_c.o
    0x08003924   0x08003924   0x00000188   Code   RO         5696    i.OSTaskDel         os_task.o
    0x08003aac   0x08003aac   0x00000018   Code   RO         6071    i.OSTaskDelHook     os_cpu_c.o
    0x08003ac4   0x08003ac4   0x00000054   Code   RO         5704    i.OSTaskResume      os_task.o
    0x08003b18   0x08003b18   0x00000018   Code   RO         6072    i.OSTaskReturnHook  os_cpu_c.o
    0x08003b30   0x08003b30   0x000001c8   Code   RO         5705    i.OSTaskSemPend     os_task.o
    0x08003cf8   0x08003cf8   0x0000003e   Code   RO         5707    i.OSTaskSemPost     os_task.o
    0x08003d36   0x08003d36   0x00000002   PAD
    0x08003d38   0x08003d38   0x000000c0   Code   RO         5709    i.OSTaskStkChk      os_task.o
    0x08003df8   0x08003df8   0x000002c4   Code   RO         6073    i.OSTaskStkInit     os_cpu_c.o
    0x080040bc   0x080040bc   0x00000024   Code   RO         5710    i.OSTaskSuspend     os_task.o
    0x080040e0   0x080040e0   0x000000b8   Code   RO         6074    i.OSTaskSwHook      os_cpu_c.o
    0x08004198   0x08004198   0x000000a4   Code   RO         5914    i.OSTimeDly         os_time.o
    0x0800423c   0x0800423c   0x0000018c   Code   RO         5915    i.OSTimeDlyHMSM     os_time.o
    0x080043c8   0x080043c8   0x00000044   Code   RO         5919    i.OSTimeTick        os_time.o
    0x0800440c   0x0800440c   0x00000014   Code   RO         6075    i.OSTimeTickHook    os_cpu_c.o
    0x08004420   0x08004420   0x00000038   Code   RO         6076    i.OS_CPU_SysTickHandler  os_cpu_c.o
    0x08004458   0x08004458   0x00000030   Code   RO         6077    i.OS_CPU_SysTickInit  os_cpu_c.o
    0x08004488   0x08004488   0x000001a8   Code   RO         5216    i.OS_Dbg_Init       os_dbg.o
    0x08004630   0x08004630   0x00000018   Code   RO         5241    i.OS_FlagInit       os_flag.o
    0x08004648   0x08004648   0x00000044   Code   RO         5008    i.OS_IdleTask       os_core.o
    0x0800468c   0x0800468c   0x00000070   Code   RO         5009    i.OS_IdleTaskInit   os_core.o
    0x080046fc   0x080046fc   0x00000018   Code   RO         5325    i.OS_MemInit        os_mem.o
    0x08004714   0x08004714   0x0000007c   Code   RO         5357    i.OS_MsgPoolInit    os_msg.o
    0x08004790   0x08004790   0x00000044   Code   RO         5358    i.OS_MsgQFreeAll    os_msg.o
    0x080047d4   0x080047d4   0x00000068   Code   RO         5359    i.OS_MsgQGet        os_msg.o
    0x0800483c   0x0800483c   0x0000000e   Code   RO         5360    i.OS_MsgQInit       os_msg.o
    0x0800484a   0x0800484a   0x00000002   PAD
    0x0800484c   0x0800484c   0x00000104   Code   RO         5361    i.OS_MsgQPut        os_msg.o
    0x08004950   0x08004950   0x00000030   Code   RO         5399    i.OS_MutexDbgListAdd  os_mutex.o
    0x08004980   0x08004980   0x00000008   Code   RO         5401    i.OS_MutexGrpAdd    os_mutex.o
    0x08004988   0x08004988   0x00000060   Code   RO         5402    i.OS_MutexGrpPostAll  os_mutex.o
    0x080049e8   0x080049e8   0x0000002c   Code   RO         5403    i.OS_MutexGrpPrioFindHighest  os_mutex.o
    0x08004a14   0x08004a14   0x0000001c   Code   RO         5404    i.OS_MutexGrpRemove  os_mutex.o
    0x08004a30   0x08004a30   0x00000018   Code   RO         5405    i.OS_MutexInit      os_mutex.o
    0x08004a48   0x08004a48   0x00000068   Code   RO         5010    i.OS_Pend           os_core.o
    0x08004ab0   0x08004ab0   0x00000028   Code   RO         5013    i.OS_PendDataInit   os_core.o
    0x08004ad8   0x08004ad8   0x0000005c   Code   RO         5014    i.OS_PendDbgNameAdd  os_core.o
    0x08004b34   0x08004b34   0x00000024   Code   RO         5015    i.OS_PendDbgNameRemove  os_core.o
    0x08004b58   0x08004b58   0x0000003a   Code   RO         5016    i.OS_PendListChangePrio  os_core.o
    0x08004b92   0x08004b92   0x0000000a   Code   RO         5017    i.OS_PendListInit   os_core.o
    0x08004b9c   0x08004b9c   0x00000066   Code   RO         5019    i.OS_PendListInsertPrio  os_core.o
    0x08004c02   0x08004c02   0x00000034   Code   RO         5020    i.OS_PendListRemove  os_core.o
    0x08004c36   0x08004c36   0x00000042   Code   RO         5021    i.OS_PendListRemove1  os_core.o
    0x08004c78   0x08004c78   0x000000d6   Code   RO         5024    i.OS_Post           os_core.o
    0x08004d4e   0x08004d4e   0x0000002c   Code   RO         5025    i.OS_Post1          os_core.o
    0x08004d7a   0x08004d7a   0x00000002   PAD
    0x08004d7c   0x08004d7c   0x00000028   Code   RO         5483    i.OS_PrioGetHighest  os_prio.o
    0x08004da4   0x08004da4   0x00000018   Code   RO         5484    i.OS_PrioInit       os_prio.o
    0x08004dbc   0x08004dbc   0x00000024   Code   RO         5485    i.OS_PrioInsert     os_prio.o
    0x08004de0   0x08004de0   0x00000024   Code   RO         5486    i.OS_PrioRemove     os_prio.o
    0x08004e04   0x08004e04   0x00000030   Code   RO         5527    i.OS_QDbgListAdd    os_q.o
    0x08004e34   0x08004e34   0x00000018   Code   RO         5529    i.OS_QInit          os_q.o
    0x08004e4c   0x08004e4c   0x000000be   Code   RO         5530    i.OS_QPost          os_q.o
    0x08004f0a   0x08004f0a   0x00000002   PAD
    0x08004f0c   0x08004f0c   0x00000024   Code   RO         5026    i.OS_RdyListInit    os_core.o
    0x08004f30   0x08004f30   0x0000002c   Code   RO         5027    i.OS_RdyListInsert  os_core.o
    0x08004f5c   0x08004f5c   0x00000040   Code   RO         5028    i.OS_RdyListInsertHead  os_core.o
    0x08004f9c   0x08004f9c   0x0000003c   Code   RO         5029    i.OS_RdyListInsertTail  os_core.o
    0x08004fd8   0x08004fd8   0x0000005c   Code   RO         5031    i.OS_RdyListRemove  os_core.o
    0x08005034   0x08005034   0x0000001c   Code   RO         5032    i.OS_SchedLockTimeMeasStart  os_core.o
    0x08005050   0x08005050   0x0000003c   Code   RO         5033    i.OS_SchedLockTimeMeasStop  os_core.o
    0x0800508c   0x0800508c   0x00000018   Code   RO         5601    i.OS_SemInit        os_sem.o
    0x080050a4   0x080050a4   0x000002e8   Code   RO         5666    i.OS_StatTask       os_stat.o
    0x0800538c   0x0800538c   0x000000cc   Code   RO         5667    i.OS_StatTaskInit   os_stat.o
    0x08005458   0x08005458   0x0000002c   Code   RO         5034    i.OS_TaskBlock      os_core.o
    0x08005484   0x08005484   0x000000ec   Code   RO         5711    i.OS_TaskChangePrio  os_task.o
    0x08005570   0x08005570   0x00000030   Code   RO         5712    i.OS_TaskDbgListAdd  os_task.o
    0x080055a0   0x080055a0   0x00000044   Code   RO         5713    i.OS_TaskDbgListRemove  os_task.o
    0x080055e4   0x080055e4   0x00000020   Code   RO         5714    i.OS_TaskInit       os_task.o
    0x08005604   0x08005604   0x000000bc   Code   RO         5715    i.OS_TaskInitTCB    os_task.o
    0x080056c0   0x080056c0   0x00000100   Code   RO         5717    i.OS_TaskResume     os_task.o
    0x080057c0   0x080057c0   0x00000018   Code   RO         5718    i.OS_TaskReturn     os_task.o
    0x080057d8   0x080057d8   0x000001c4   Code   RO         5719    i.OS_TaskSemPost    os_task.o
    0x0800599c   0x0800599c   0x00000118   Code   RO         5720    i.OS_TaskSuspend    os_task.o
    0x08005ab4   0x08005ab4   0x00000086   Code   RO         5862    i.OS_TickListInsert  os_tick.o
    0x08005b3a   0x08005b3a   0x00000002   PAD
    0x08005b3c   0x08005b3c   0x000000bc   Code   RO         5863    i.OS_TickListInsertDly  os_tick.o
    0x08005bf8   0x08005bf8   0x00000058   Code   RO         5864    i.OS_TickListRemove  os_tick.o
    0x08005c50   0x08005c50   0x00000002   Code   RO         5865    i.OS_TickListResetPeak  os_tick.o
    0x08005c52   0x08005c52   0x00000002   PAD
    0x08005c54   0x08005c54   0x00000098   Code   RO         5866    i.OS_TickListUpdateDly  os_tick.o
    0x08005cec   0x08005cec   0x00000114   Code   RO         5867    i.OS_TickListUpdateTimeout  os_tick.o
    0x08005e00   0x08005e00   0x00000064   Code   RO         5868    i.OS_TickTask       os_tick.o
    0x08005e64   0x08005e64   0x000000c8   Code   RO         5869    i.OS_TickTaskInit   os_tick.o
    0x08005f2c   0x08005f2c   0x00000134   Code   RO         5965    i.OS_TmrInit        os_tmr.o
    0x08006060   0x08006060   0x00000018   Code   RO         5966    i.OS_TmrLock        os_tmr.o
    0x08006078   0x08006078   0x00000002   Code   RO         5967    i.OS_TmrResetPeak   os_tmr.o
    0x0800607a   0x0800607a   0x00000002   PAD
    0x0800607c   0x0800607c   0x00000094   Code   RO         5968    i.OS_TmrTask        os_tmr.o
    0x08006110   0x08006110   0x00000044   Code   RO         5969    i.OS_TmrUnlink      os_tmr.o
    0x08006154   0x08006154   0x00000014   Code   RO         5970    i.OS_TmrUnlock      os_tmr.o
    0x08006168   0x08006168   0x00000014   Code   RO          853    i.PULSE_disable     nibp_hw_cfg.o
    0x0800617c   0x0800617c   0x00000014   Code   RO          854    i.PULSE_enable      nibp_hw_cfg.o
    0x08006190   0x08006190   0x00000010   Code   RO          855    i.PUMU_OFF          nibp_hw_cfg.o
    0x080061a0   0x080061a0   0x00000010   Code   RO          856    i.PUMU_ON           nibp_hw_cfg.o
    0x080061b0   0x080061b0   0x000001c8   Code   RO          948    i.Polynomia_y_to_x  polynomialfit.o
    0x08006378   0x08006378   0x00000438   Code   RO          949    i.PolynomialFit     polynomialfit.o
    0x080067b0   0x080067b0   0x00000030   Code   RO         1045    i.Printf_task       sprintf.o
    0x080067e0   0x080067e0   0x00000014   Code   RO          857    i.Protect_read      nibp_hw_cfg.o
    0x080067f4   0x080067f4   0x0000000e   Code   RO         1089    i.QueueEmpty        queue.o
    0x08006802   0x08006802   0x00000002   PAD
    0x08006804   0x08006804   0x000000d4   Code   RO          703    i.RED_AdjTask       spo2.o
    0x080068d8   0x080068d8   0x00000010   Code   RO          615    i.RED_OFF           spo2_hw_cfg.o
    0x080068e8   0x080068e8   0x00000010   Code   RO          616    i.RED_ON            spo2_hw_cfg.o
    0x080068f8   0x080068f8   0x0000001c   Code   RO         1146    i.ReadSendBuf       uart0.o
    0x08006914   0x08006914   0x0000001c   Code   RO         1392    i.ReadSendBuf       uart1.o
    0x08006930   0x08006930   0x0000001c   Code   RO         1465    i.ReadSendBuf       uart2.o
    0x0800694c   0x0800694c   0x0000001c   Code   RO         1466    i.ReadUART2         uart2.o
    0x08006968   0x08006968   0x0000013c   Code   RO          704    i.SPO2_ProbeTask    spo2.o
    0x08006aa4   0x08006aa4   0x00000358   Code   RO          705    i.SPO2_SamplTask    spo2.o
    0x08006dfc   0x08006dfc   0x00000002   Code   RO         4112    i.SVC_Handler       gd32f30x_it.o
    0x08006dfe   0x08006dfe   0x00000002   PAD
    0x08006e00   0x08006e00   0x0000000c   Code   RO          617    i.SetIr_DA_Val      spo2_hw_cfg.o
    0x08006e0c   0x08006e0c   0x0000000c   Code   RO          618    i.SetRed_DA_Val     spo2_hw_cfg.o
    0x08006e18   0x08006e18   0x00000058   Code   RO            6    i.StartTask         main.o
    0x08006e70   0x08006e70   0x00000050   Code   RO         4203    i.SystemInit        system_gd32f30x.o
    0x08006ec0   0x08006ec0   0x000000b8   Code   RO          619    i.TIMER3_IRQHandler  spo2_hw_cfg.o
    0x08006f78   0x08006f78   0x000000b4   Code   RO         1148    i.USART0_IRQHandler  uart0.o
    0x0800702c   0x0800702c   0x000000b4   Code   RO         1394    i.USART1_IRQHandler  uart1.o
    0x080070e0   0x080070e0   0x000000b8   Code   RO         1467    i.USART2_IRQHandler  uart2.o
    0x08007198   0x08007198   0x00000004   Code   RO         4113    i.UsageFault_Handler  gd32f30x_it.o
    0x0800719c   0x0800719c   0x00000010   Code   RO          858    i.VALVE_F_CLOSE     nibp_hw_cfg.o
    0x080071ac   0x080071ac   0x00000010   Code   RO          859    i.VALVE_F_OPEN      nibp_hw_cfg.o
    0x080071bc   0x080071bc   0x00000010   Code   RO          860    i.VALVE_S_CLOSE     nibp_hw_cfg.o
    0x080071cc   0x080071cc   0x00000010   Code   RO          861    i.VALVE_S_OPEN      nibp_hw_cfg.o
    0x080071dc   0x080071dc   0x00000018   Code   RO         1149    i.WriteReceiveBuf   uart0.o
    0x080071f4   0x080071f4   0x00000018   Code   RO         1395    i.WriteReceiveBuf   uart1.o
    0x0800720c   0x0800720c   0x00000018   Code   RO         1468    i.WriteReceiveBuf   uart2.o
    0x08007224   0x08007224   0x00000020   Code   RO         6465    i.__0printf         mc_w.l(printfa.o)
    0x08007244   0x08007244   0x00000028   Code   RO         6467    i.__0sprintf        mc_w.l(printfa.o)
    0x0800726c   0x0800726c   0x0000000e   Code   RO         6577    i.__scatterload_copy  mc_w.l(handlers.o)
    0x0800727a   0x0800727a   0x00000002   Code   RO         6578    i.__scatterload_null  mc_w.l(handlers.o)
    0x0800727c   0x0800727c   0x0000000e   Code   RO         6579    i.__scatterload_zeroinit  mc_w.l(handlers.o)
    0x0800728a   0x0800728a   0x00000002   PAD
    0x0800728c   0x0800728c   0x00000184   Code   RO         6472    i._fp_digits        mc_w.l(printfa.o)
    0x08007410   0x08007410   0x000006dc   Code   RO         6473    i._printf_core      mc_w.l(printfa.o)
    0x08007aec   0x08007aec   0x00000024   Code   RO         6474    i._printf_post_padding  mc_w.l(printfa.o)
    0x08007b10   0x08007b10   0x0000002e   Code   RO         6475    i._printf_pre_padding  mc_w.l(printfa.o)
    0x08007b3e   0x08007b3e   0x0000000a   Code   RO         6477    i._sputc            mc_w.l(printfa.o)
    0x08007b48   0x08007b48   0x0000002a   Code   RO         3615    i.adc_calibration_enable  gd32f30x_adc.o
    0x08007b72   0x08007b72   0x00000046   Code   RO         3616    i.adc_channel_length_config  gd32f30x_adc.o
    0x08007bb8   0x08007bb8   0x00000016   Code   RO         3617    i.adc_data_alignment_config  gd32f30x_adc.o
    0x08007bce   0x08007bce   0x00000002   PAD
    0x08007bd0   0x08007bd0   0x00000058   Code   RO         3618    i.adc_deinit        gd32f30x_adc.o
    0x08007c28   0x08007c28   0x0000000a   Code   RO         3622    i.adc_dma_mode_enable  gd32f30x_adc.o
    0x08007c32   0x08007c32   0x00000012   Code   RO         3623    i.adc_enable        gd32f30x_adc.o
    0x08007c44   0x08007c44   0x0000003e   Code   RO         3624    i.adc_external_trigger_config  gd32f30x_adc.o
    0x08007c82   0x08007c82   0x00000030   Code   RO         3625    i.adc_external_trigger_source_config  gd32f30x_adc.o
    0x08007cb2   0x08007cb2   0x00000002   PAD
    0x08007cb4   0x08007cb4   0x0000001c   Code   RO         3635    i.adc_mode_config   gd32f30x_adc.o
    0x08007cd0   0x08007cd0   0x0000000e   Code   RO         3637    i.adc_oversample_mode_disable  gd32f30x_adc.o
    0x08007cde   0x08007cde   0x000000ac   Code   RO         3639    i.adc_regular_channel_config  gd32f30x_adc.o
    0x08007d8a   0x08007d8a   0x00000014   Code   RO         3641    i.adc_resolution_config  gd32f30x_adc.o
    0x08007d9e   0x08007d9e   0x0000001e   Code   RO         3642    i.adc_software_trigger_enable  gd32f30x_adc.o
    0x08007dbc   0x08007dbc   0x0000005a   Code   RO         3643    i.adc_special_function_config  gd32f30x_adc.o
    0x08007e16   0x08007e16   0x00000002   PAD
    0x08007e18   0x08007e18   0x00000018   Code   RO         3850    i.dac_concurrent_disable  gd32f30x_dac.o
    0x08007e30   0x08007e30   0x00000058   Code   RO         3856    i.dac_data_set      gd32f30x_dac.o
    0x08007e88   0x08007e88   0x00000014   Code   RO         3857    i.dac_deinit        gd32f30x_dac.o
    0x08007e9c   0x08007e9c   0x00000024   Code   RO         3861    i.dac_enable        gd32f30x_dac.o
    0x08007ec0   0x08007ec0   0x00000024   Code   RO         3864    i.dac_output_buffer_enable  gd32f30x_dac.o
    0x08007ee4   0x08007ee4   0x00000024   Code   RO         3869    i.dac_trigger_disable  gd32f30x_dac.o
    0x08007f08   0x08007f08   0x00000034   Code   RO         3873    i.dac_wave_mode_config  gd32f30x_dac.o
    0x08007f3c   0x08007f3c   0x00000032   Code   RO         3137    i.dma_channel_enable  gd32f30x_dma.o
    0x08007f6e   0x08007f6e   0x00000032   Code   RO         3139    i.dma_circulation_enable  gd32f30x_dma.o
    0x08007fa0   0x08007fa0   0x00000070   Code   RO         3140    i.dma_deinit        gd32f30x_dma.o
    0x08008010   0x08008010   0x0000012e   Code   RO         3143    i.dma_init          gd32f30x_dma.o
    0x0800813e   0x0800813e   0x00000032   Code   RO         3151    i.dma_memory_to_memory_disable  gd32f30x_dma.o
    0x08008170   0x08008170   0x00000018   Code   RO         3155    i.dma_periph_and_channel_check  gd32f30x_dma.o
    0x08008188   0x08008188   0x000000b8   Code   RO         4022    i.exti_init         gd32f30x_exti.o
    0x08008240   0x08008240   0x0000000c   Code   RO         4025    i.exti_interrupt_flag_clear  gd32f30x_exti.o
    0x0800824c   0x0800824c   0x00000024   Code   RO         4026    i.exti_interrupt_flag_get  gd32f30x_exti.o
    0x08008270   0x08008270   0x00000024   Code   RO         1470    i.fputc             uart2.o
    0x08008294   0x08008294   0x00000004   Code   RO         1769    i.gpio_bit_reset    gd32f30x_gpio.o
    0x08008298   0x08008298   0x00000004   Code   RO         1770    i.gpio_bit_set      gd32f30x_gpio.o
    0x0800829c   0x0800829c   0x0000000a   Code   RO         1771    i.gpio_bit_write    gd32f30x_gpio.o
    0x080082a6   0x080082a6   0x00000002   PAD
    0x080082a8   0x080082a8   0x00000098   Code   RO         1778    i.gpio_exti_source_select  gd32f30x_gpio.o
    0x08008340   0x08008340   0x000000bc   Code   RO         1779    i.gpio_init         gd32f30x_gpio.o
    0x080083fc   0x080083fc   0x00000010   Code   RO         1780    i.gpio_input_bit_get  gd32f30x_gpio.o
    0x0800840c   0x0800840c   0x00000010   Code   RO         1782    i.gpio_output_bit_get  gd32f30x_gpio.o
    0x0800841c   0x0800841c   0x000000ec   Code   RO            7    i.main              main.o
    0x08008508   0x08008508   0x0000006c   Code   RO         6494    i.malloc            mc_w.l(malloc.o)
    0x08008574   0x08008574   0x000000c4   Code   RO         1901    i.nvic_irq_enable   gd32f30x_misc.o
    0x08008638   0x08008638   0x00000014   Code   RO         1902    i.nvic_priority_group_set  gd32f30x_misc.o
    0x0800864c   0x0800864c   0x0000001c   Code   RO         1046    i.printf_s_aus      sprintf.o
    0x08008668   0x08008668   0x0000006c   Code   RO         1960    i.rcu_adc_clock_config  gd32f30x_rcu.o
    0x080086d4   0x080086d4   0x00000158   Code   RO         1969    i.rcu_clock_freq_get  gd32f30x_rcu.o
    0x0800882c   0x0800882c   0x00000020   Code   RO         1987    i.rcu_periph_clock_enable  gd32f30x_rcu.o
    0x0800884c   0x0800884c   0x00000020   Code   RO         1990    i.rcu_periph_reset_disable  gd32f30x_rcu.o
    0x0800886c   0x0800886c   0x00000020   Code   RO         1991    i.rcu_periph_reset_enable  gd32f30x_rcu.o
    0x0800888c   0x0800888c   0x00000110   Code   RO         4204    i.system_clock_120m_hxtal  system_gd32f30x.o
    0x0800899c   0x0800899c   0x00000008   Code   RO         4205    i.system_clock_config  system_gd32f30x.o
    0x080089a4   0x080089a4   0x000000dc   Code   RO         2243    i.timer_deinit      gd32f30x_timer.o
    0x08008a80   0x08008a80   0x0000000a   Code   RO         2248    i.timer_enable      gd32f30x_timer.o
    0x08008a8a   0x08008a8a   0x00000002   PAD
    0x08008a8c   0x08008a8c   0x00000098   Code   RO         2258    i.timer_init        gd32f30x_timer.o
    0x08008b24   0x08008b24   0x00000008   Code   RO         2265    i.timer_interrupt_enable  gd32f30x_timer.o
    0x08008b2c   0x08008b2c   0x00000006   Code   RO         2266    i.timer_interrupt_flag_clear  gd32f30x_timer.o
    0x08008b32   0x08008b32   0x00000018   Code   RO         2267    i.timer_interrupt_flag_get  gd32f30x_timer.o
    0x08008b4a   0x08008b4a   0x00000016   Code   RO         2278    i.timer_struct_para_init  gd32f30x_timer.o
    0x08008b60   0x08008b60   0x00000090   Code   RO         2657    i.usart_baudrate_set  gd32f30x_usart.o
    0x08008bf0   0x08008bf0   0x0000000a   Code   RO         2660    i.usart_data_receive  gd32f30x_usart.o
    0x08008bfa   0x08008bfa   0x00000008   Code   RO         2661    i.usart_data_transmit  gd32f30x_usart.o
    0x08008c02   0x08008c02   0x00000002   PAD
    0x08008c04   0x08008c04   0x00000090   Code   RO         2662    i.usart_deinit      gd32f30x_usart.o
    0x08008c94   0x08008c94   0x0000000a   Code   RO         2666    i.usart_enable      gd32f30x_usart.o
    0x08008c9e   0x08008c9e   0x0000001e   Code   RO         2668    i.usart_flag_get    gd32f30x_usart.o
    0x08008cbc   0x08008cbc   0x0000001a   Code   RO         2674    i.usart_interrupt_disable  gd32f30x_usart.o
    0x08008cd6   0x08008cd6   0x0000001a   Code   RO         2675    i.usart_interrupt_enable  gd32f30x_usart.o
    0x08008cf0   0x08008cf0   0x0000001a   Code   RO         2676    i.usart_interrupt_flag_clear  gd32f30x_usart.o
    0x08008d0a   0x08008d0a   0x00000038   Code   RO         2677    i.usart_interrupt_flag_get  gd32f30x_usart.o
    0x08008d42   0x08008d42   0x00000010   Code   RO         2688    i.usart_parity_config  gd32f30x_usart.o
    0x08008d52   0x08008d52   0x00000010   Code   RO         2690    i.usart_receive_config  gd32f30x_usart.o
    0x08008d62   0x08008d62   0x00000010   Code   RO         2700    i.usart_stop_bit_set  gd32f30x_usart.o
    0x08008d72   0x08008d72   0x00000010   Code   RO         2704    i.usart_transmit_config  gd32f30x_usart.o
    0x08008d82   0x08008d82   0x00000010   Code   RO         2705    i.usart_word_length_set  gd32f30x_usart.o
    0x08008d92   0x08008d92   0x00000002   PAD
    0x08008d94   0x08008d94   0x0000001c   Data   RO          302    .constdata          led.o
    0x08008db0   0x08008db0   0x000000ac   Data   RO          341    .constdata          filter.o
    0x08008e5c   0x08008e5c   0x00000038   Data   RO          393    .constdata          ecg.o
    0x08008e94   0x08008e94   0x00000070   Data   RO          707    .constdata          spo2.o
    0x08008f04   0x08008f04   0x00000038   Data   RO          769    .constdata          nibp.o
    0x08008f3c   0x08008f3c   0x0000001c   Data   RO         1048    .constdata          sprintf.o
    0x08008f58   0x08008f58   0x00000094   Data   RO         4979    .constdata          os_cfg_app.o
    0x08008fec   0x08008fec   0x0000016c   Data   RO         5217    .constdata          os_dbg.o
    0x08009158   0x08009158   0x00000008   Data   RO          303    .conststring        led.o
    0x08009160   0x08009160   0x0000001e   Data   RO          394    .conststring        ecg.o
    0x0800917e   0x0800917e   0x00000002   PAD
    0x08009180   0x08009180   0x00000037   Data   RO          708    .conststring        spo2.o
    0x080091b7   0x080091b7   0x00000001   PAD
    0x080091b8   0x080091b8   0x00000024   Data   RO          770    .conststring        nibp.o
    0x080091dc   0x080091dc   0x0000000c   Data   RO         1049    .conststring        sprintf.o
    0x080091e8   0x080091e8   0x00000020   Data   RO         6575    Region$$Table       anon$$obj.o


    Execution Region RW_IRAM1 (Exec base: 0x20000000, Load base: 0x08009208, Size: 0x0000b6d8, Max: 0x00010000, ABSOLUTE, COMPRESSED[0x000000b0])

    Exec Addr    Load Addr    Size         Type   Attr      Idx    E Section Name        Object

    0x20000000   COMPRESSED   0x00000018   Data   RW          395    .data               ecg.o
    0x20000018   COMPRESSED   0x0000000c   Data   RW          620    .data               spo2_hw_cfg.o
    0x20000024   COMPRESSED   0x00000038   Data   RW          709    .data               spo2.o
    0x2000005c   COMPRESSED   0x00000004   PAD
    0x20000060   COMPRESSED   0x000000fa   Data   RW          771    .data               nibp.o
    0x2000015a   COMPRESSED   0x00000001   Data   RW         1152    .data               uart0.o
    0x2000015b   COMPRESSED   0x00000001   Data   RW         1398    .data               uart1.o
    0x2000015c   COMPRESSED   0x00000001   Data   RW         1472    .data               uart2.o
    0x2000015d   COMPRESSED   0x00000003   PAD
    0x20000160   COMPRESSED   0x00000004   Data   RW         4393    .data               cpu_core.o
    0x20000164   COMPRESSED   0x00000004   Data   RW         4610    .data               lib_math.o
    0x20000168   COMPRESSED   0x00000004   Data   RW         4671    .data               lib_mem.o
    0x2000016c   COMPRESSED   0x00000008   Data   RW         5487    .data               os_prio.o
    0x20000174   COMPRESSED   0x000000c4   Data   RW         6051    .data               os_var.o
    0x20000238   COMPRESSED   0x00000004   Data   RW         6078    .data               os_cpu_c.o
    0x2000023c   COMPRESSED   0x00000004   Data   RW         6555    .data               mc_w.l(stdout.o)
    0x20000240   COMPRESSED   0x00000004   Data   RW         6564    .data               mc_w.l(mvars.o)
    0x20000244   COMPRESSED   0x00000004   Data   RW         6565    .data               mc_w.l(mvars.o)
    0x20000248        -       0x000008c0   Zero   RW            8    .bss                main.o
    0x20000b08        -       0x000002c0   Zero   RW          301    .bss                led.o
    0x20000dc8        -       0x00001190   Zero   RW          392    .bss                ecg.o
    0x20001f58        -       0x000024f8   Zero   RW          706    .bss                spo2.o
    0x20004450        -       0x00002fe0   Zero   RW          768    .bss                nibp.o
    0x20007430        -       0x000002f8   Zero   RW          950    .bss                polynomialfit.o
    0x20007728        -       0x00001120   Zero   RW         1047    .bss                sprintf.o
    0x20008848        -       0x000000e0   Zero   RW         1151    .bss                uart0.o
    0x20008928        -       0x0000000a   Zero   RW         1330    .bss                adc.o
    0x20008932   COMPRESSED   0x00000002   PAD
    0x20008934        -       0x000000e0   Zero   RW         1397    .bss                uart1.o
    0x20008a14        -       0x000000e0   Zero   RW         1471    .bss                uart2.o
    0x20008af4        -       0x00000010   Zero   RW         4391    .bss                cpu_core.o
    0x20008b04        -       0x00000c14   Zero   RW         4670    .bss                lib_mem.o
    0x20009718        -       0x00000d80   Zero   RW         4978    .bss                os_cfg_app.o
    0x2000a498        -       0x0000063c   Zero   RW         6050    .bss                os_var.o
    0x2000aad4   COMPRESSED   0x00000004   PAD
    0x2000aad8        -       0x00000400   Zero   RW         4246    HEAP                startup_gd32f30x_hd.o
    0x2000aed8        -       0x00000800   Zero   RW         4245    STACK               startup_gd32f30x_hd.o


==============================================================================

Image component sizes


      Code (inc. data)   RO Data    RW Data    ZI Data      Debug   Object Name

       468         54          0          0         10       5134   adc.o
       102         18          0          0          0      12071   bsp.o
       246          0          0          0          0       3460   calculate.o
        52          0          0          0          0        408   cpu_a.o
       104         18          0          4         16       6164   cpu_core.o
      1060        230         86         24       4496      32456   ecg.o
       250         10        172          0          0       4253   filter.o
       714         10          0          0          0      10357   gd32f30x_adc.o
       292         34          0          0          0       4690   gd32f30x_dac.o
       588          6          0          0          0       5125   gd32f30x_dma.o
       232         16          0          0          0       2270   gd32f30x_exti.o
       390          6          0          0          0       5390   gd32f30x_gpio.o
        22          0          0          0          0       4187   gd32f30x_it.o
       216         20          0          0          0       1632   gd32f30x_misc.o
       548         68          0          0          0       4123   gd32f30x_rcu.o
       442         40          0          0          0       5529   gd32f30x_timer.o
       560         16          0          0          0      11064   gd32f30x_usart.o
       376         44         36          0        704       2925   led.o
        54          4          0          4          0       2650   lib_math.o
       284         26          0          4       3092      16289   lib_mem.o
       384        148          0          0       2240     111363   main.o
      2492        502         92        250      12256       9212   nibp.o
       312         52          0          0          0       6811   nibp_hw_cfg.o
        20          0          0          0          0       1155   nvic.o
         2          0        148          0       3456      19783   os_cfg_app.o
      2494        342          0          0          0      22533   os_core.o
       268         14          0          0          0        496   os_cpu_a.o
      1168        168          0          4          0      28919   os_cpu_c.o
       424        278        364          0          0       5141   os_dbg.o
        24         10          0          0          0       1146   os_flag.o
        24         10          0          0          0       1145   os_mem.o
       570         32          0          0          0       5022   os_msg.o
      1220         56          0          0          0       8559   os_mutex.o
       136         16          0          8          0       3694   os_prio.o
       974         46          0          0          0       6575   os_q.o
        24         10          0          0          0       1137   os_sem.o
      1484        190          0          0          0       4639   os_stat.o
      3206        164          0          0          0      16197   os_task.o
      1140         88          0          0          0       7618   os_tick.o
       628         40          0          0          0       3521   os_time.o
       570        142          0          0          0       5003   os_tmr.o
         0          0          0        196       1596      18132   os_var.o
      2032         90          0          0        760       7321   polynomialfit.o
       190          0          0          0          0       4021   queue.o
      1908        348        167         56       9464       6026   spo2.o
       526         80          0         12          0       8588   spo2_hw_cfg.o
       440        128         40          0       4384       3345   sprintf.o
        76         16        304          0       3072        932   startup_gd32f30x_hd.o
       360         30          0          0          0       2001   system_gd32f30x.o
       472         70          0          1        224      40051   uart0.o
       468         70          0          1        224       5104   uart1.o
       540         82          0          1        224       6560   uart2.o

    ----------------------------------------------------------------------
     31620       3842       1444        572      46224     511927   Object Totals
         0          0         32          0          0          0   (incl. Generated)
        44          0          3          7          6          0   (incl. Padding)

    ----------------------------------------------------------------------

      Code (inc. data)   RO Data    RW Data    ZI Data      Debug   Library Member Name

        86          0          0          0          0          0   __dczerorl2.o
         0          0          0          0          0          0   entry.o
         0          0          0          0          0          0   entry10a.o
         0          0          0          0          0          0   entry11a.o
         8          4          0          0          0          0   entry2.o
         4          0          0          0          0          0   entry5.o
         0          0          0          0          0          0   entry7b.o
         0          0          0          0          0          0   entry8b.o
         8          4          0          0          0          0   entry9a.o
        30          0          0          0          0          0   handlers.o
        36          8          0          0          0         68   init.o
         0          0          0          0          0          0   iusefp.o
        30          0          0          0          0         68   llshl.o
        36          0          0          0          0         68   llsshr.o
        32          0          0          0          0         68   llushr.o
       108         16          0          0          0         84   malloc.o
        36          0          0          0          0         68   memcpya.o
        36          0          0          0          0        108   memseta.o
         0          0          0          8          0          0   mvars.o
      2308         96          0          0          0        604   printfa.o
         0          0          0          4          0          0   stdout.o
        44          0          0          0          0         80   uidiv.o
        98          0          0          0          0         92   uldiv.o
        48          0          0          0          0         68   cdcmple.o
        48          0          0          0          0         68   cdrcmple.o
        56          0          0          0          0         88   d2f.o
       334          0          0          0          0        148   dadd.o
       222          0          0          0          0        100   ddiv.o
       186          0          0          0          0        176   depilogue.o
        62          0          0          0          0         80   dfixi.o
        48          0          0          0          0         68   dfixul.o
        34          0          0          0          0         76   dflti.o
       228          0          0          0          0         96   dmul.o
        38          0          0          0          0         68   f2d.o
       110          0          0          0          0        168   fepilogue.o

    ----------------------------------------------------------------------
      4320        128          0         12          0       2512   Library Totals
         6          0          0          0          0          0   (incl. Padding)

    ----------------------------------------------------------------------

      Code (inc. data)   RO Data    RW Data    ZI Data      Debug   Library Name

      2900        128          0         12          0       1308   mc_w.l
      1414          0          0          0          0       1204   mf_w.l

    ----------------------------------------------------------------------
      4320        128          0         12          0       2512   Library Totals

    ----------------------------------------------------------------------

==============================================================================


      Code (inc. data)   RO Data    RW Data    ZI Data      Debug   

     35940       3970       1444        584      46224     484823   Grand Totals
     35940       3970       1444        176      46224     484823   ELF Image Totals (compressed)
     35940       3970       1444        176          0          0   ROM Totals

==============================================================================

    Total RO  Size (Code + RO Data)                37384 (  36.51kB)
    Total RW  Size (RW Data + ZI Data)             46808 (  45.71kB)
    Total ROM Size (Code + RO Data + RW Data)      37560 (  36.68kB)

==============================================================================

